
program:     formato del fichero elf32-littleriscv


Desensamblado de la sección .text:

00010074 <_start>:
   10074:	00004197          	auipc	gp,0x4
   10078:	c0418193          	addi	gp,gp,-1020 # 13c78 <__global_pointer$>
   1007c:	80c18513          	addi	a0,gp,-2036 # 13484 <_edata>
   10080:	83418613          	addi	a2,gp,-1996 # 134ac <_end>
   10084:	40a60633          	sub	a2,a2,a0
   10088:	00000593          	li	a1,0
   1008c:	644010ef          	jal	ra,116d0 <memset>
   10090:	00001517          	auipc	a0,0x1
   10094:	53050513          	addi	a0,a0,1328 # 115c0 <__libc_fini_array>
   10098:	4e0010ef          	jal	ra,11578 <atexit>
   1009c:	594010ef          	jal	ra,11630 <__libc_init_array>
   100a0:	00012503          	lw	a0,0(sp)
   100a4:	00410593          	addi	a1,sp,4
   100a8:	00000613          	li	a2,0
   100ac:	104000ef          	jal	ra,101b0 <main>
   100b0:	4dc0106f          	j	1158c <exit>

000100b4 <_fini>:
   100b4:	00008067          	ret

000100b8 <deregister_tm_clones>:
   100b8:	00013537          	lui	a0,0x13
   100bc:	000137b7          	lui	a5,0x13
   100c0:	47850713          	addi	a4,a0,1144 # 13478 <__TMC_END__>
   100c4:	47878793          	addi	a5,a5,1144 # 13478 <__TMC_END__>
   100c8:	00e78c63          	beq	a5,a4,100e0 <deregister_tm_clones+0x28>
   100cc:	00000337          	lui	t1,0x0
   100d0:	00030313          	mv	t1,t1
   100d4:	00030663          	beqz	t1,100e0 <deregister_tm_clones+0x28>
   100d8:	47850513          	addi	a0,a0,1144
   100dc:	00030067          	jr	t1
   100e0:	00008067          	ret

000100e4 <register_tm_clones>:
   100e4:	000137b7          	lui	a5,0x13
   100e8:	00013537          	lui	a0,0x13
   100ec:	47878593          	addi	a1,a5,1144 # 13478 <__TMC_END__>
   100f0:	47850793          	addi	a5,a0,1144 # 13478 <__TMC_END__>
   100f4:	40f585b3          	sub	a1,a1,a5
   100f8:	4025d593          	srai	a1,a1,0x2
   100fc:	01f5d793          	srli	a5,a1,0x1f
   10100:	00b785b3          	add	a1,a5,a1
   10104:	4015d593          	srai	a1,a1,0x1
   10108:	00058c63          	beqz	a1,10120 <register_tm_clones+0x3c>
   1010c:	00000337          	lui	t1,0x0
   10110:	00030313          	mv	t1,t1
   10114:	00030663          	beqz	t1,10120 <register_tm_clones+0x3c>
   10118:	47850513          	addi	a0,a0,1144
   1011c:	00030067          	jr	t1
   10120:	00008067          	ret

00010124 <__do_global_dtors_aux>:
   10124:	8181c703          	lbu	a4,-2024(gp) # 13490 <completed.5148>
   10128:	04071663          	bnez	a4,10174 <__do_global_dtors_aux+0x50>
   1012c:	ff010113          	addi	sp,sp,-16
   10130:	00812423          	sw	s0,8(sp)
   10134:	00112623          	sw	ra,12(sp)
   10138:	00078413          	mv	s0,a5
   1013c:	f7dff0ef          	jal	ra,100b8 <deregister_tm_clones>
   10140:	000007b7          	lui	a5,0x0
   10144:	00078793          	mv	a5,a5
   10148:	00078a63          	beqz	a5,1015c <__do_global_dtors_aux+0x38>
   1014c:	00012537          	lui	a0,0x12
   10150:	04450513          	addi	a0,a0,68 # 12044 <__EH_FRAME_BEGIN__>
   10154:	ffff0097          	auipc	ra,0xffff0
   10158:	eac080e7          	jalr	-340(ra) # 0 <_start-0x10074>
   1015c:	00100793          	li	a5,1
   10160:	80f18c23          	sb	a5,-2024(gp) # 13490 <completed.5148>
   10164:	00c12083          	lw	ra,12(sp)
   10168:	00812403          	lw	s0,8(sp)
   1016c:	01010113          	addi	sp,sp,16
   10170:	00008067          	ret
   10174:	00008067          	ret

00010178 <frame_dummy>:
   10178:	000007b7          	lui	a5,0x0
   1017c:	00078793          	mv	a5,a5
   10180:	02078663          	beqz	a5,101ac <frame_dummy+0x34>
   10184:	000135b7          	lui	a1,0x13
   10188:	00012537          	lui	a0,0x12
   1018c:	ff010113          	addi	sp,sp,-16
   10190:	49458593          	addi	a1,a1,1172 # 13494 <object.5153>
   10194:	04450513          	addi	a0,a0,68 # 12044 <__EH_FRAME_BEGIN__>
   10198:	00112623          	sw	ra,12(sp)
   1019c:	ffff0097          	auipc	ra,0xffff0
   101a0:	e64080e7          	jalr	-412(ra) # 0 <_start-0x10074>
   101a4:	00c12083          	lw	ra,12(sp)
   101a8:	01010113          	addi	sp,sp,16
   101ac:	f39ff06f          	j	100e4 <register_tm_clones>

000101b0 <main>:
   101b0:	fc010113          	addi	sp,sp,-64
   101b4:	02112e23          	sw	ra,60(sp)
   101b8:	02812c23          	sw	s0,56(sp)
   101bc:	04010413          	addi	s0,sp,64
   101c0:	00200593          	li	a1,2
   101c4:	00100513          	li	a0,1
   101c8:	0f8000ef          	jal	ra,102c0 <SumInt>
   101cc:	fea42423          	sw	a0,-24(s0)
   101d0:	00300593          	li	a1,3
   101d4:	00200513          	li	a0,2
   101d8:	1c0000ef          	jal	ra,10398 <MultInt>
   101dc:	fea42223          	sw	a0,-28(s0)
   101e0:	00200593          	li	a1,2
   101e4:	00500513          	li	a0,5
   101e8:	144000ef          	jal	ra,1032c <SubInt>
   101ec:	fea42023          	sw	a0,-32(s0)
   101f0:	00300593          	li	a1,3
   101f4:	00300513          	li	a0,3
   101f8:	218000ef          	jal	ra,10410 <DivInt>
   101fc:	fca42e23          	sw	a0,-36(s0)
   10200:	000127b7          	lui	a5,0x12
   10204:	eb07a703          	lw	a4,-336(a5) # 11eb0 <__errno+0x8>
   10208:	000127b7          	lui	a5,0x12
   1020c:	eb47a783          	lw	a5,-332(a5) # 11eb4 <__errno+0xc>
   10210:	00070593          	mv	a1,a4
   10214:	00078513          	mv	a0,a5
   10218:	0d8000ef          	jal	ra,102f0 <SumFloat>
   1021c:	fca42c23          	sw	a0,-40(s0)
   10220:	000127b7          	lui	a5,0x12
   10224:	eb87a703          	lw	a4,-328(a5) # 11eb8 <__errno+0x10>
   10228:	000127b7          	lui	a5,0x12
   1022c:	ebc7a783          	lw	a5,-324(a5) # 11ebc <__errno+0x14>
   10230:	00070593          	mv	a1,a4
   10234:	00078513          	mv	a0,a5
   10238:	124000ef          	jal	ra,1035c <SubFloat>
   1023c:	fca42a23          	sw	a0,-44(s0)
   10240:	000127b7          	lui	a5,0x12
   10244:	ec07a703          	lw	a4,-320(a5) # 11ec0 <__errno+0x18>
   10248:	000127b7          	lui	a5,0x12
   1024c:	ec47a783          	lw	a5,-316(a5) # 11ec4 <__errno+0x1c>
   10250:	00070593          	mv	a1,a4
   10254:	00078513          	mv	a0,a5
   10258:	17c000ef          	jal	ra,103d4 <MultFloat>
   1025c:	fca42823          	sw	a0,-48(s0)
   10260:	000127b7          	lui	a5,0x12
   10264:	ec87a703          	lw	a4,-312(a5) # 11ec8 <__errno+0x20>
   10268:	000127b7          	lui	a5,0x12
   1026c:	eb87a783          	lw	a5,-328(a5) # 11eb8 <__errno+0x10>
   10270:	00070593          	mv	a1,a4
   10274:	00078513          	mv	a0,a5
   10278:	1d4000ef          	jal	ra,1044c <DivFloat>
   1027c:	fca42623          	sw	a0,-52(s0)
   10280:	fe042623          	sw	zero,-20(s0)
   10284:	01c0006f          	j	102a0 <main+0xf0>
   10288:	fec42583          	lw	a1,-20(s0)
   1028c:	00100513          	li	a0,1
   10290:	030000ef          	jal	ra,102c0 <SumInt>
   10294:	fec42783          	lw	a5,-20(s0)
   10298:	00178793          	addi	a5,a5,1
   1029c:	fef42623          	sw	a5,-20(s0)
   102a0:	fec42703          	lw	a4,-20(s0)
   102a4:	00900793          	li	a5,9
   102a8:	fee7d0e3          	ble	a4,a5,10288 <main+0xd8>
   102ac:	00000013          	nop
   102b0:	03c12083          	lw	ra,60(sp)
   102b4:	03812403          	lw	s0,56(sp)
   102b8:	04010113          	addi	sp,sp,64
   102bc:	00008067          	ret

000102c0 <SumInt>:
   102c0:	fe010113          	addi	sp,sp,-32
   102c4:	00812e23          	sw	s0,28(sp)
   102c8:	02010413          	addi	s0,sp,32
   102cc:	fea42623          	sw	a0,-20(s0)
   102d0:	feb42423          	sw	a1,-24(s0)
   102d4:	fec42703          	lw	a4,-20(s0)
   102d8:	fe842783          	lw	a5,-24(s0)
   102dc:	00f707b3          	add	a5,a4,a5
   102e0:	00078513          	mv	a0,a5
   102e4:	01c12403          	lw	s0,28(sp)
   102e8:	02010113          	addi	sp,sp,32
   102ec:	00008067          	ret

000102f0 <SumFloat>:
   102f0:	fe010113          	addi	sp,sp,-32
   102f4:	00112e23          	sw	ra,28(sp)
   102f8:	00812c23          	sw	s0,24(sp)
   102fc:	02010413          	addi	s0,sp,32
   10300:	fea42623          	sw	a0,-20(s0)
   10304:	feb42423          	sw	a1,-24(s0)
   10308:	fe842583          	lw	a1,-24(s0)
   1030c:	fec42503          	lw	a0,-20(s0)
   10310:	178000ef          	jal	ra,10488 <__addsf3>
   10314:	00050793          	mv	a5,a0
   10318:	00078513          	mv	a0,a5
   1031c:	01c12083          	lw	ra,28(sp)
   10320:	01812403          	lw	s0,24(sp)
   10324:	02010113          	addi	sp,sp,32
   10328:	00008067          	ret

0001032c <SubInt>:
   1032c:	fe010113          	addi	sp,sp,-32
   10330:	00812e23          	sw	s0,28(sp)
   10334:	02010413          	addi	s0,sp,32
   10338:	fea42623          	sw	a0,-20(s0)
   1033c:	feb42423          	sw	a1,-24(s0)
   10340:	fec42703          	lw	a4,-20(s0)
   10344:	fe842783          	lw	a5,-24(s0)
   10348:	40f707b3          	sub	a5,a4,a5
   1034c:	00078513          	mv	a0,a5
   10350:	01c12403          	lw	s0,28(sp)
   10354:	02010113          	addi	sp,sp,32
   10358:	00008067          	ret

0001035c <SubFloat>:
   1035c:	fe010113          	addi	sp,sp,-32
   10360:	00112e23          	sw	ra,28(sp)
   10364:	00812c23          	sw	s0,24(sp)
   10368:	02010413          	addi	s0,sp,32
   1036c:	fea42623          	sw	a0,-20(s0)
   10370:	feb42423          	sw	a1,-24(s0)
   10374:	fe842583          	lw	a1,-24(s0)
   10378:	fec42503          	lw	a0,-20(s0)
   1037c:	461000ef          	jal	ra,10fdc <__subsf3>
   10380:	00050793          	mv	a5,a0
   10384:	00078513          	mv	a0,a5
   10388:	01c12083          	lw	ra,28(sp)
   1038c:	01812403          	lw	s0,24(sp)
   10390:	02010113          	addi	sp,sp,32
   10394:	00008067          	ret

00010398 <MultInt>:
   10398:	fe010113          	addi	sp,sp,-32
   1039c:	00112e23          	sw	ra,28(sp)
   103a0:	00812c23          	sw	s0,24(sp)
   103a4:	02010413          	addi	s0,sp,32
   103a8:	fea42623          	sw	a0,-20(s0)
   103ac:	feb42423          	sw	a1,-24(s0)
   103b0:	fe842583          	lw	a1,-24(s0)
   103b4:	fec42503          	lw	a0,-20(s0)
   103b8:	09c010ef          	jal	ra,11454 <__mulsi3>
   103bc:	00050793          	mv	a5,a0
   103c0:	00078513          	mv	a0,a5
   103c4:	01c12083          	lw	ra,28(sp)
   103c8:	01812403          	lw	s0,24(sp)
   103cc:	02010113          	addi	sp,sp,32
   103d0:	00008067          	ret

000103d4 <MultFloat>:
   103d4:	fe010113          	addi	sp,sp,-32
   103d8:	00112e23          	sw	ra,28(sp)
   103dc:	00812c23          	sw	s0,24(sp)
   103e0:	02010413          	addi	s0,sp,32
   103e4:	fea42623          	sw	a0,-20(s0)
   103e8:	feb42423          	sw	a1,-24(s0)
   103ec:	fe842583          	lw	a1,-24(s0)
   103f0:	fec42503          	lw	a0,-20(s0)
   103f4:	07d000ef          	jal	ra,10c70 <__mulsf3>
   103f8:	00050793          	mv	a5,a0
   103fc:	00078513          	mv	a0,a5
   10400:	01c12083          	lw	ra,28(sp)
   10404:	01812403          	lw	s0,24(sp)
   10408:	02010113          	addi	sp,sp,32
   1040c:	00008067          	ret

00010410 <DivInt>:
   10410:	fe010113          	addi	sp,sp,-32
   10414:	00112e23          	sw	ra,28(sp)
   10418:	00812c23          	sw	s0,24(sp)
   1041c:	02010413          	addi	s0,sp,32
   10420:	fea42623          	sw	a0,-20(s0)
   10424:	feb42423          	sw	a1,-24(s0)
   10428:	fe842583          	lw	a1,-24(s0)
   1042c:	fec42503          	lw	a0,-20(s0)
   10430:	048010ef          	jal	ra,11478 <__divsi3>
   10434:	00050793          	mv	a5,a0
   10438:	00078513          	mv	a0,a5
   1043c:	01c12083          	lw	ra,28(sp)
   10440:	01812403          	lw	s0,24(sp)
   10444:	02010113          	addi	sp,sp,32
   10448:	00008067          	ret

0001044c <DivFloat>:
   1044c:	fe010113          	addi	sp,sp,-32
   10450:	00112e23          	sw	ra,28(sp)
   10454:	00812c23          	sw	s0,24(sp)
   10458:	02010413          	addi	s0,sp,32
   1045c:	fea42623          	sw	a0,-20(s0)
   10460:	feb42423          	sw	a1,-24(s0)
   10464:	fe842583          	lw	a1,-24(s0)
   10468:	fec42503          	lw	a0,-20(s0)
   1046c:	470000ef          	jal	ra,108dc <__divsf3>
   10470:	00050793          	mv	a5,a0
   10474:	00078513          	mv	a0,a5
   10478:	01c12083          	lw	ra,28(sp)
   1047c:	01812403          	lw	s0,24(sp)
   10480:	02010113          	addi	sp,sp,32
   10484:	00008067          	ret

00010488 <__addsf3>:
   10488:	008007b7          	lui	a5,0x800
   1048c:	ff010113          	addi	sp,sp,-16
   10490:	fff78793          	addi	a5,a5,-1 # 7fffff <__global_pointer$+0x7ec387>
   10494:	00a7f733          	and	a4,a5,a0
   10498:	00812423          	sw	s0,8(sp)
   1049c:	01212023          	sw	s2,0(sp)
   104a0:	01755413          	srli	s0,a0,0x17
   104a4:	01f55913          	srli	s2,a0,0x1f
   104a8:	0175d513          	srli	a0,a1,0x17
   104ac:	00b7f7b3          	and	a5,a5,a1
   104b0:	0ff47413          	andi	s0,s0,255
   104b4:	0ff57513          	andi	a0,a0,255
   104b8:	00112623          	sw	ra,12(sp)
   104bc:	00912223          	sw	s1,4(sp)
   104c0:	01f5d593          	srli	a1,a1,0x1f
   104c4:	00371613          	slli	a2,a4,0x3
   104c8:	00379793          	slli	a5,a5,0x3
   104cc:	40a40733          	sub	a4,s0,a0
   104d0:	18b91e63          	bne	s2,a1,1066c <__addsf3+0x1e4>
   104d4:	0ae05863          	blez	a4,10584 <__addsf3+0xfc>
   104d8:	06051863          	bnez	a0,10548 <__addsf3+0xc0>
   104dc:	00079c63          	bnez	a5,104f4 <__addsf3+0x6c>
   104e0:	0ff00793          	li	a5,255
   104e4:	04f40c63          	beq	s0,a5,1053c <__addsf3+0xb4>
   104e8:	00060793          	mv	a5,a2
   104ec:	00040513          	mv	a0,s0
   104f0:	0bc0006f          	j	105ac <__addsf3+0x124>
   104f4:	fff70713          	addi	a4,a4,-1
   104f8:	02071e63          	bnez	a4,10534 <__addsf3+0xac>
   104fc:	00c787b3          	add	a5,a5,a2
   10500:	00040513          	mv	a0,s0
   10504:	00579713          	slli	a4,a5,0x5
   10508:	0a075263          	bgez	a4,105ac <__addsf3+0x124>
   1050c:	00150513          	addi	a0,a0,1
   10510:	0ff00713          	li	a4,255
   10514:	32e50463          	beq	a0,a4,1083c <__addsf3+0x3b4>
   10518:	7e000737          	lui	a4,0x7e000
   1051c:	0017f693          	andi	a3,a5,1
   10520:	fff70713          	addi	a4,a4,-1 # 7dffffff <__global_pointer$+0x7dfec387>
   10524:	0017d793          	srli	a5,a5,0x1
   10528:	00e7f7b3          	and	a5,a5,a4
   1052c:	00d7e7b3          	or	a5,a5,a3
   10530:	07c0006f          	j	105ac <__addsf3+0x124>
   10534:	0ff00693          	li	a3,255
   10538:	02d41063          	bne	s0,a3,10558 <__addsf3+0xd0>
   1053c:	00060793          	mv	a5,a2
   10540:	0ff00513          	li	a0,255
   10544:	0680006f          	j	105ac <__addsf3+0x124>
   10548:	0ff00693          	li	a3,255
   1054c:	fed408e3          	beq	s0,a3,1053c <__addsf3+0xb4>
   10550:	040006b7          	lui	a3,0x4000
   10554:	00d7e7b3          	or	a5,a5,a3
   10558:	01b00693          	li	a3,27
   1055c:	00e6d663          	ble	a4,a3,10568 <__addsf3+0xe0>
   10560:	00100793          	li	a5,1
   10564:	f99ff06f          	j	104fc <__addsf3+0x74>
   10568:	02000693          	li	a3,32
   1056c:	40e686b3          	sub	a3,a3,a4
   10570:	00e7d5b3          	srl	a1,a5,a4
   10574:	00d797b3          	sll	a5,a5,a3
   10578:	00f037b3          	snez	a5,a5
   1057c:	00f5e7b3          	or	a5,a1,a5
   10580:	f7dff06f          	j	104fc <__addsf3+0x74>
   10584:	08070463          	beqz	a4,1060c <__addsf3+0x184>
   10588:	04041063          	bnez	s0,105c8 <__addsf3+0x140>
   1058c:	02060063          	beqz	a2,105ac <__addsf3+0x124>
   10590:	fff00693          	li	a3,-1
   10594:	00d71663          	bne	a4,a3,105a0 <__addsf3+0x118>
   10598:	00c787b3          	add	a5,a5,a2
   1059c:	f69ff06f          	j	10504 <__addsf3+0x7c>
   105a0:	0ff00693          	li	a3,255
   105a4:	fff74713          	not	a4,a4
   105a8:	02d51a63          	bne	a0,a3,105dc <__addsf3+0x154>
   105ac:	0077f713          	andi	a4,a5,7
   105b0:	28070863          	beqz	a4,10840 <__addsf3+0x3b8>
   105b4:	00f7f713          	andi	a4,a5,15
   105b8:	00400693          	li	a3,4
   105bc:	28d70263          	beq	a4,a3,10840 <__addsf3+0x3b8>
   105c0:	00478793          	addi	a5,a5,4
   105c4:	27c0006f          	j	10840 <__addsf3+0x3b8>
   105c8:	0ff00693          	li	a3,255
   105cc:	fed500e3          	beq	a0,a3,105ac <__addsf3+0x124>
   105d0:	040006b7          	lui	a3,0x4000
   105d4:	40e00733          	neg	a4,a4
   105d8:	00d66633          	or	a2,a2,a3
   105dc:	01b00693          	li	a3,27
   105e0:	00e6d663          	ble	a4,a3,105ec <__addsf3+0x164>
   105e4:	00100713          	li	a4,1
   105e8:	01c0006f          	j	10604 <__addsf3+0x17c>
   105ec:	02000693          	li	a3,32
   105f0:	00e655b3          	srl	a1,a2,a4
   105f4:	40e68733          	sub	a4,a3,a4
   105f8:	00e61733          	sll	a4,a2,a4
   105fc:	00e03733          	snez	a4,a4
   10600:	00e5e733          	or	a4,a1,a4
   10604:	00e787b3          	add	a5,a5,a4
   10608:	efdff06f          	j	10504 <__addsf3+0x7c>
   1060c:	00140513          	addi	a0,s0,1
   10610:	0ff57693          	andi	a3,a0,255
   10614:	00100713          	li	a4,1
   10618:	04d74063          	blt	a4,a3,10658 <__addsf3+0x1d0>
   1061c:	02041863          	bnez	s0,1064c <__addsf3+0x1c4>
   10620:	00000513          	li	a0,0
   10624:	f80604e3          	beqz	a2,105ac <__addsf3+0x124>
   10628:	20078663          	beqz	a5,10834 <__addsf3+0x3ac>
   1062c:	00c787b3          	add	a5,a5,a2
   10630:	00579713          	slli	a4,a5,0x5
   10634:	f6075ce3          	bgez	a4,105ac <__addsf3+0x124>
   10638:	fc000737          	lui	a4,0xfc000
   1063c:	fff70713          	addi	a4,a4,-1 # fbffffff <__global_pointer$+0xfbfec387>
   10640:	00e7f7b3          	and	a5,a5,a4
   10644:	00100513          	li	a0,1
   10648:	f65ff06f          	j	105ac <__addsf3+0x124>
   1064c:	ee060ae3          	beqz	a2,10540 <__addsf3+0xb8>
   10650:	16079463          	bnez	a5,107b8 <__addsf3+0x330>
   10654:	ee9ff06f          	j	1053c <__addsf3+0xb4>
   10658:	0ff00713          	li	a4,255
   1065c:	1ee50063          	beq	a0,a4,1083c <__addsf3+0x3b4>
   10660:	00f60733          	add	a4,a2,a5
   10664:	00175793          	srli	a5,a4,0x1
   10668:	f45ff06f          	j	105ac <__addsf3+0x124>
   1066c:	08e05063          	blez	a4,106ec <__addsf3+0x264>
   10670:	04051663          	bnez	a0,106bc <__addsf3+0x234>
   10674:	e60786e3          	beqz	a5,104e0 <__addsf3+0x58>
   10678:	fff70713          	addi	a4,a4,-1
   1067c:	02071463          	bnez	a4,106a4 <__addsf3+0x21c>
   10680:	40f607b3          	sub	a5,a2,a5
   10684:	00040513          	mv	a0,s0
   10688:	00579713          	slli	a4,a5,0x5
   1068c:	f20750e3          	bgez	a4,105ac <__addsf3+0x124>
   10690:	040004b7          	lui	s1,0x4000
   10694:	fff48493          	addi	s1,s1,-1 # 3ffffff <__global_pointer$+0x3fec387>
   10698:	0097f4b3          	and	s1,a5,s1
   1069c:	00050413          	mv	s0,a0
   106a0:	13c0006f          	j	107dc <__addsf3+0x354>
   106a4:	0ff00693          	li	a3,255
   106a8:	e8d40ae3          	beq	s0,a3,1053c <__addsf3+0xb4>
   106ac:	01b00693          	li	a3,27
   106b0:	02e6d063          	ble	a4,a3,106d0 <__addsf3+0x248>
   106b4:	00100793          	li	a5,1
   106b8:	fc9ff06f          	j	10680 <__addsf3+0x1f8>
   106bc:	0ff00693          	li	a3,255
   106c0:	e6d40ee3          	beq	s0,a3,1053c <__addsf3+0xb4>
   106c4:	040006b7          	lui	a3,0x4000
   106c8:	00d7e7b3          	or	a5,a5,a3
   106cc:	fe1ff06f          	j	106ac <__addsf3+0x224>
   106d0:	02000693          	li	a3,32
   106d4:	00e7d5b3          	srl	a1,a5,a4
   106d8:	40e68733          	sub	a4,a3,a4
   106dc:	00e797b3          	sll	a5,a5,a4
   106e0:	00f037b3          	snez	a5,a5
   106e4:	00f5e7b3          	or	a5,a1,a5
   106e8:	f99ff06f          	j	10680 <__addsf3+0x1f8>
   106ec:	06070e63          	beqz	a4,10768 <__addsf3+0x2e0>
   106f0:	02041e63          	bnez	s0,1072c <__addsf3+0x2a4>
   106f4:	00058913          	mv	s2,a1
   106f8:	ea060ae3          	beqz	a2,105ac <__addsf3+0x124>
   106fc:	fff00693          	li	a3,-1
   10700:	00d71863          	bne	a4,a3,10710 <__addsf3+0x288>
   10704:	40c787b3          	sub	a5,a5,a2
   10708:	00058913          	mv	s2,a1
   1070c:	f7dff06f          	j	10688 <__addsf3+0x200>
   10710:	0ff00693          	li	a3,255
   10714:	fff74713          	not	a4,a4
   10718:	e8d50ae3          	beq	a0,a3,105ac <__addsf3+0x124>
   1071c:	01b00693          	li	a3,27
   10720:	02e6d463          	ble	a4,a3,10748 <__addsf3+0x2c0>
   10724:	00100713          	li	a4,1
   10728:	0380006f          	j	10760 <__addsf3+0x2d8>
   1072c:	0ff00693          	li	a3,255
   10730:	00058913          	mv	s2,a1
   10734:	e6d50ce3          	beq	a0,a3,105ac <__addsf3+0x124>
   10738:	040006b7          	lui	a3,0x4000
   1073c:	40e00733          	neg	a4,a4
   10740:	00d66633          	or	a2,a2,a3
   10744:	fd9ff06f          	j	1071c <__addsf3+0x294>
   10748:	02000693          	li	a3,32
   1074c:	00e65833          	srl	a6,a2,a4
   10750:	40e68733          	sub	a4,a3,a4
   10754:	00e61733          	sll	a4,a2,a4
   10758:	00e03733          	snez	a4,a4
   1075c:	00e86733          	or	a4,a6,a4
   10760:	40e787b3          	sub	a5,a5,a4
   10764:	fa5ff06f          	j	10708 <__addsf3+0x280>
   10768:	00140713          	addi	a4,s0,1
   1076c:	0ff77713          	andi	a4,a4,255
   10770:	00100693          	li	a3,1
   10774:	04e6ca63          	blt	a3,a4,107c8 <__addsf3+0x340>
   10778:	02041c63          	bnez	s0,107b0 <__addsf3+0x328>
   1077c:	00061863          	bnez	a2,1078c <__addsf3+0x304>
   10780:	12079e63          	bnez	a5,108bc <__addsf3+0x434>
   10784:	00000513          	li	a0,0
   10788:	0380006f          	j	107c0 <__addsf3+0x338>
   1078c:	12078c63          	beqz	a5,108c4 <__addsf3+0x43c>
   10790:	40f60733          	sub	a4,a2,a5
   10794:	00571693          	slli	a3,a4,0x5
   10798:	40c787b3          	sub	a5,a5,a2
   1079c:	1206c063          	bltz	a3,108bc <__addsf3+0x434>
   107a0:	00070793          	mv	a5,a4
   107a4:	06071663          	bnez	a4,10810 <__addsf3+0x388>
   107a8:	00000793          	li	a5,0
   107ac:	fd9ff06f          	j	10784 <__addsf3+0x2fc>
   107b0:	ea0610e3          	bnez	a2,10650 <__addsf3+0x1c8>
   107b4:	10079c63          	bnez	a5,108cc <__addsf3+0x444>
   107b8:	020007b7          	lui	a5,0x2000
   107bc:	0ff00513          	li	a0,255
   107c0:	00000913          	li	s2,0
   107c4:	07c0006f          	j	10840 <__addsf3+0x3b8>
   107c8:	40f604b3          	sub	s1,a2,a5
   107cc:	00549713          	slli	a4,s1,0x5
   107d0:	04075463          	bgez	a4,10818 <__addsf3+0x390>
   107d4:	40c784b3          	sub	s1,a5,a2
   107d8:	00058913          	mv	s2,a1
   107dc:	00048513          	mv	a0,s1
   107e0:	54d000ef          	jal	ra,1152c <__clzsi2>
   107e4:	ffb50513          	addi	a0,a0,-5
   107e8:	00a494b3          	sll	s1,s1,a0
   107ec:	02854a63          	blt	a0,s0,10820 <__addsf3+0x398>
   107f0:	40850533          	sub	a0,a0,s0
   107f4:	00150513          	addi	a0,a0,1
   107f8:	02000413          	li	s0,32
   107fc:	00a4d7b3          	srl	a5,s1,a0
   10800:	40a40533          	sub	a0,s0,a0
   10804:	00a494b3          	sll	s1,s1,a0
   10808:	009034b3          	snez	s1,s1
   1080c:	0097e7b3          	or	a5,a5,s1
   10810:	00000513          	li	a0,0
   10814:	d99ff06f          	j	105ac <__addsf3+0x124>
   10818:	f80488e3          	beqz	s1,107a8 <__addsf3+0x320>
   1081c:	fc1ff06f          	j	107dc <__addsf3+0x354>
   10820:	fc0007b7          	lui	a5,0xfc000
   10824:	fff78793          	addi	a5,a5,-1 # fbffffff <__global_pointer$+0xfbfec387>
   10828:	40a40533          	sub	a0,s0,a0
   1082c:	00f4f7b3          	and	a5,s1,a5
   10830:	d7dff06f          	j	105ac <__addsf3+0x124>
   10834:	00060793          	mv	a5,a2
   10838:	d75ff06f          	j	105ac <__addsf3+0x124>
   1083c:	00000793          	li	a5,0
   10840:	00579713          	slli	a4,a5,0x5
   10844:	00075e63          	bgez	a4,10860 <__addsf3+0x3d8>
   10848:	00150513          	addi	a0,a0,1
   1084c:	0ff00713          	li	a4,255
   10850:	08e50263          	beq	a0,a4,108d4 <__addsf3+0x44c>
   10854:	fc000737          	lui	a4,0xfc000
   10858:	fff70713          	addi	a4,a4,-1 # fbffffff <__global_pointer$+0xfbfec387>
   1085c:	00e7f7b3          	and	a5,a5,a4
   10860:	0ff00713          	li	a4,255
   10864:	0037d793          	srli	a5,a5,0x3
   10868:	00e51863          	bne	a0,a4,10878 <__addsf3+0x3f0>
   1086c:	00078663          	beqz	a5,10878 <__addsf3+0x3f0>
   10870:	004007b7          	lui	a5,0x400
   10874:	00000913          	li	s2,0
   10878:	00800737          	lui	a4,0x800
   1087c:	fff70713          	addi	a4,a4,-1 # 7fffff <__global_pointer$+0x7ec387>
   10880:	0ff57513          	andi	a0,a0,255
   10884:	00e7f7b3          	and	a5,a5,a4
   10888:	01751713          	slli	a4,a0,0x17
   1088c:	80800537          	lui	a0,0x80800
   10890:	00c12083          	lw	ra,12(sp)
   10894:	00812403          	lw	s0,8(sp)
   10898:	fff50513          	addi	a0,a0,-1 # 807fffff <__global_pointer$+0x807ec387>
   1089c:	00a7f533          	and	a0,a5,a0
   108a0:	01f91913          	slli	s2,s2,0x1f
   108a4:	00e56533          	or	a0,a0,a4
   108a8:	01256533          	or	a0,a0,s2
   108ac:	00412483          	lw	s1,4(sp)
   108b0:	00012903          	lw	s2,0(sp)
   108b4:	01010113          	addi	sp,sp,16
   108b8:	00008067          	ret
   108bc:	00058913          	mv	s2,a1
   108c0:	f51ff06f          	j	10810 <__addsf3+0x388>
   108c4:	00060793          	mv	a5,a2
   108c8:	f49ff06f          	j	10810 <__addsf3+0x388>
   108cc:	00058913          	mv	s2,a1
   108d0:	c71ff06f          	j	10540 <__addsf3+0xb8>
   108d4:	00000793          	li	a5,0
   108d8:	f89ff06f          	j	10860 <__addsf3+0x3d8>

000108dc <__divsf3>:
   108dc:	fd010113          	addi	sp,sp,-48
   108e0:	02912223          	sw	s1,36(sp)
   108e4:	01512a23          	sw	s5,20(sp)
   108e8:	01755493          	srli	s1,a0,0x17
   108ec:	00800ab7          	lui	s5,0x800
   108f0:	03212023          	sw	s2,32(sp)
   108f4:	01612823          	sw	s6,16(sp)
   108f8:	fffa8a93          	addi	s5,s5,-1 # 7fffff <__global_pointer$+0x7ec387>
   108fc:	02112623          	sw	ra,44(sp)
   10900:	02812423          	sw	s0,40(sp)
   10904:	01312e23          	sw	s3,28(sp)
   10908:	01412c23          	sw	s4,24(sp)
   1090c:	01712623          	sw	s7,12(sp)
   10910:	01812423          	sw	s8,8(sp)
   10914:	0ff4f493          	andi	s1,s1,255
   10918:	00058b13          	mv	s6,a1
   1091c:	00aafab3          	and	s5,s5,a0
   10920:	01f55913          	srli	s2,a0,0x1f
   10924:	08048663          	beqz	s1,109b0 <__divsf3+0xd4>
   10928:	0ff00793          	li	a5,255
   1092c:	0af48263          	beq	s1,a5,109d0 <__divsf3+0xf4>
   10930:	003a9a93          	slli	s5,s5,0x3
   10934:	040007b7          	lui	a5,0x4000
   10938:	00faeab3          	or	s5,s5,a5
   1093c:	f8148493          	addi	s1,s1,-127
   10940:	00000b93          	li	s7,0
   10944:	017b5513          	srli	a0,s6,0x17
   10948:	00800437          	lui	s0,0x800
   1094c:	fff40413          	addi	s0,s0,-1 # 7fffff <__global_pointer$+0x7ec387>
   10950:	0ff57513          	andi	a0,a0,255
   10954:	01647433          	and	s0,s0,s6
   10958:	01fb5b13          	srli	s6,s6,0x1f
   1095c:	08050a63          	beqz	a0,109f0 <__divsf3+0x114>
   10960:	0ff00793          	li	a5,255
   10964:	0af50663          	beq	a0,a5,10a10 <__divsf3+0x134>
   10968:	00341413          	slli	s0,s0,0x3
   1096c:	040007b7          	lui	a5,0x4000
   10970:	00f46433          	or	s0,s0,a5
   10974:	f8150513          	addi	a0,a0,-127
   10978:	00000793          	li	a5,0
   1097c:	002b9713          	slli	a4,s7,0x2
   10980:	00f76733          	or	a4,a4,a5
   10984:	fff70713          	addi	a4,a4,-1
   10988:	00e00693          	li	a3,14
   1098c:	016949b3          	xor	s3,s2,s6
   10990:	40a48a33          	sub	s4,s1,a0
   10994:	08e6ee63          	bltu	a3,a4,10a30 <__divsf3+0x154>
   10998:	000126b7          	lui	a3,0x12
   1099c:	00271713          	slli	a4,a4,0x2
   109a0:	ecc68693          	addi	a3,a3,-308 # 11ecc <__errno+0x24>
   109a4:	00d70733          	add	a4,a4,a3
   109a8:	00072703          	lw	a4,0(a4)
   109ac:	00070067          	jr	a4
   109b0:	020a8a63          	beqz	s5,109e4 <__divsf3+0x108>
   109b4:	000a8513          	mv	a0,s5
   109b8:	375000ef          	jal	ra,1152c <__clzsi2>
   109bc:	ffb50793          	addi	a5,a0,-5
   109c0:	f8a00493          	li	s1,-118
   109c4:	00fa9ab3          	sll	s5,s5,a5
   109c8:	40a484b3          	sub	s1,s1,a0
   109cc:	f75ff06f          	j	10940 <__divsf3+0x64>
   109d0:	0ff00493          	li	s1,255
   109d4:	00200b93          	li	s7,2
   109d8:	f60a86e3          	beqz	s5,10944 <__divsf3+0x68>
   109dc:	00300b93          	li	s7,3
   109e0:	f65ff06f          	j	10944 <__divsf3+0x68>
   109e4:	00000493          	li	s1,0
   109e8:	00100b93          	li	s7,1
   109ec:	f59ff06f          	j	10944 <__divsf3+0x68>
   109f0:	02040a63          	beqz	s0,10a24 <__divsf3+0x148>
   109f4:	00040513          	mv	a0,s0
   109f8:	335000ef          	jal	ra,1152c <__clzsi2>
   109fc:	ffb50793          	addi	a5,a0,-5
   10a00:	00f41433          	sll	s0,s0,a5
   10a04:	f8a00793          	li	a5,-118
   10a08:	40a78533          	sub	a0,a5,a0
   10a0c:	f6dff06f          	j	10978 <__divsf3+0x9c>
   10a10:	0ff00513          	li	a0,255
   10a14:	00200793          	li	a5,2
   10a18:	f60402e3          	beqz	s0,1097c <__divsf3+0xa0>
   10a1c:	00300793          	li	a5,3
   10a20:	f5dff06f          	j	1097c <__divsf3+0xa0>
   10a24:	00000513          	li	a0,0
   10a28:	00100793          	li	a5,1
   10a2c:	f51ff06f          	j	1097c <__divsf3+0xa0>
   10a30:	00541b13          	slli	s6,s0,0x5
   10a34:	128af663          	bleu	s0,s5,10b60 <__divsf3+0x284>
   10a38:	fffa0a13          	addi	s4,s4,-1
   10a3c:	00000913          	li	s2,0
   10a40:	010b5b93          	srli	s7,s6,0x10
   10a44:	00010437          	lui	s0,0x10
   10a48:	000b8593          	mv	a1,s7
   10a4c:	fff40413          	addi	s0,s0,-1 # ffff <_start-0x75>
   10a50:	000a8513          	mv	a0,s5
   10a54:	22d000ef          	jal	ra,11480 <__udivsi3>
   10a58:	008b7433          	and	s0,s6,s0
   10a5c:	00050593          	mv	a1,a0
   10a60:	00050c13          	mv	s8,a0
   10a64:	00040513          	mv	a0,s0
   10a68:	1ed000ef          	jal	ra,11454 <__mulsi3>
   10a6c:	00050493          	mv	s1,a0
   10a70:	000b8593          	mv	a1,s7
   10a74:	000a8513          	mv	a0,s5
   10a78:	251000ef          	jal	ra,114c8 <__umodsi3>
   10a7c:	01095913          	srli	s2,s2,0x10
   10a80:	01051513          	slli	a0,a0,0x10
   10a84:	00a96533          	or	a0,s2,a0
   10a88:	000c0913          	mv	s2,s8
   10a8c:	00957e63          	bleu	s1,a0,10aa8 <__divsf3+0x1cc>
   10a90:	01650533          	add	a0,a0,s6
   10a94:	fffc0913          	addi	s2,s8,-1
   10a98:	01656863          	bltu	a0,s6,10aa8 <__divsf3+0x1cc>
   10a9c:	00957663          	bleu	s1,a0,10aa8 <__divsf3+0x1cc>
   10aa0:	ffec0913          	addi	s2,s8,-2
   10aa4:	01650533          	add	a0,a0,s6
   10aa8:	409504b3          	sub	s1,a0,s1
   10aac:	000b8593          	mv	a1,s7
   10ab0:	00048513          	mv	a0,s1
   10ab4:	1cd000ef          	jal	ra,11480 <__udivsi3>
   10ab8:	00050593          	mv	a1,a0
   10abc:	00050c13          	mv	s8,a0
   10ac0:	00040513          	mv	a0,s0
   10ac4:	191000ef          	jal	ra,11454 <__mulsi3>
   10ac8:	00050a93          	mv	s5,a0
   10acc:	000b8593          	mv	a1,s7
   10ad0:	00048513          	mv	a0,s1
   10ad4:	1f5000ef          	jal	ra,114c8 <__umodsi3>
   10ad8:	01051513          	slli	a0,a0,0x10
   10adc:	000c0413          	mv	s0,s8
   10ae0:	01557e63          	bleu	s5,a0,10afc <__divsf3+0x220>
   10ae4:	01650533          	add	a0,a0,s6
   10ae8:	fffc0413          	addi	s0,s8,-1
   10aec:	01656863          	bltu	a0,s6,10afc <__divsf3+0x220>
   10af0:	01557663          	bleu	s5,a0,10afc <__divsf3+0x220>
   10af4:	ffec0413          	addi	s0,s8,-2
   10af8:	01650533          	add	a0,a0,s6
   10afc:	01091913          	slli	s2,s2,0x10
   10b00:	41550533          	sub	a0,a0,s5
   10b04:	00896933          	or	s2,s2,s0
   10b08:	00a03533          	snez	a0,a0
   10b0c:	00a96433          	or	s0,s2,a0
   10b10:	07fa0713          	addi	a4,s4,127
   10b14:	0ae05063          	blez	a4,10bb4 <__divsf3+0x2d8>
   10b18:	00747793          	andi	a5,s0,7
   10b1c:	00078a63          	beqz	a5,10b30 <__divsf3+0x254>
   10b20:	00f47793          	andi	a5,s0,15
   10b24:	00400693          	li	a3,4
   10b28:	00d78463          	beq	a5,a3,10b30 <__divsf3+0x254>
   10b2c:	00440413          	addi	s0,s0,4
   10b30:	00441793          	slli	a5,s0,0x4
   10b34:	0007da63          	bgez	a5,10b48 <__divsf3+0x26c>
   10b38:	f80007b7          	lui	a5,0xf8000
   10b3c:	fff78793          	addi	a5,a5,-1 # f7ffffff <__global_pointer$+0xf7fec387>
   10b40:	00f47433          	and	s0,s0,a5
   10b44:	080a0713          	addi	a4,s4,128
   10b48:	0fe00793          	li	a5,254
   10b4c:	00345413          	srli	s0,s0,0x3
   10b50:	0ce7d263          	ble	a4,a5,10c14 <__divsf3+0x338>
   10b54:	00000413          	li	s0,0
   10b58:	0ff00713          	li	a4,255
   10b5c:	0b80006f          	j	10c14 <__divsf3+0x338>
   10b60:	01fa9913          	slli	s2,s5,0x1f
   10b64:	001ada93          	srli	s5,s5,0x1
   10b68:	ed9ff06f          	j	10a40 <__divsf3+0x164>
   10b6c:	00090993          	mv	s3,s2
   10b70:	000a8413          	mv	s0,s5
   10b74:	000b8793          	mv	a5,s7
   10b78:	00200713          	li	a4,2
   10b7c:	fce78ce3          	beq	a5,a4,10b54 <__divsf3+0x278>
   10b80:	00300713          	li	a4,3
   10b84:	08e78263          	beq	a5,a4,10c08 <__divsf3+0x32c>
   10b88:	00100713          	li	a4,1
   10b8c:	f8e792e3          	bne	a5,a4,10b10 <__divsf3+0x234>
   10b90:	00000413          	li	s0,0
   10b94:	00000713          	li	a4,0
   10b98:	07c0006f          	j	10c14 <__divsf3+0x338>
   10b9c:	000b0993          	mv	s3,s6
   10ba0:	fd9ff06f          	j	10b78 <__divsf3+0x29c>
   10ba4:	00400437          	lui	s0,0x400
   10ba8:	00000993          	li	s3,0
   10bac:	00300793          	li	a5,3
   10bb0:	fc9ff06f          	j	10b78 <__divsf3+0x29c>
   10bb4:	00100793          	li	a5,1
   10bb8:	40e787b3          	sub	a5,a5,a4
   10bbc:	01b00713          	li	a4,27
   10bc0:	fcf748e3          	blt	a4,a5,10b90 <__divsf3+0x2b4>
   10bc4:	09ea0513          	addi	a0,s4,158
   10bc8:	00f457b3          	srl	a5,s0,a5
   10bcc:	00a41433          	sll	s0,s0,a0
   10bd0:	00803433          	snez	s0,s0
   10bd4:	0087e433          	or	s0,a5,s0
   10bd8:	00747793          	andi	a5,s0,7
   10bdc:	00078a63          	beqz	a5,10bf0 <__divsf3+0x314>
   10be0:	00f47793          	andi	a5,s0,15
   10be4:	00400713          	li	a4,4
   10be8:	00e78463          	beq	a5,a4,10bf0 <__divsf3+0x314>
   10bec:	00440413          	addi	s0,s0,4 # 400004 <__global_pointer$+0x3ec38c>
   10bf0:	00541793          	slli	a5,s0,0x5
   10bf4:	00345413          	srli	s0,s0,0x3
   10bf8:	f807dee3          	bgez	a5,10b94 <__divsf3+0x2b8>
   10bfc:	00000413          	li	s0,0
   10c00:	00100713          	li	a4,1
   10c04:	0100006f          	j	10c14 <__divsf3+0x338>
   10c08:	00400437          	lui	s0,0x400
   10c0c:	0ff00713          	li	a4,255
   10c10:	00000993          	li	s3,0
   10c14:	00800537          	lui	a0,0x800
   10c18:	fff50513          	addi	a0,a0,-1 # 7fffff <__global_pointer$+0x7ec387>
   10c1c:	00a47433          	and	s0,s0,a0
   10c20:	80800537          	lui	a0,0x80800
   10c24:	fff50513          	addi	a0,a0,-1 # 807fffff <__global_pointer$+0x807ec387>
   10c28:	0ff77713          	andi	a4,a4,255
   10c2c:	00a47433          	and	s0,s0,a0
   10c30:	01771713          	slli	a4,a4,0x17
   10c34:	01f99513          	slli	a0,s3,0x1f
   10c38:	00e46433          	or	s0,s0,a4
   10c3c:	00a46533          	or	a0,s0,a0
   10c40:	02c12083          	lw	ra,44(sp)
   10c44:	02812403          	lw	s0,40(sp)
   10c48:	02412483          	lw	s1,36(sp)
   10c4c:	02012903          	lw	s2,32(sp)
   10c50:	01c12983          	lw	s3,28(sp)
   10c54:	01812a03          	lw	s4,24(sp)
   10c58:	01412a83          	lw	s5,20(sp)
   10c5c:	01012b03          	lw	s6,16(sp)
   10c60:	00c12b83          	lw	s7,12(sp)
   10c64:	00812c03          	lw	s8,8(sp)
   10c68:	03010113          	addi	sp,sp,48
   10c6c:	00008067          	ret

00010c70 <__mulsf3>:
   10c70:	fd010113          	addi	sp,sp,-48
   10c74:	02912223          	sw	s1,36(sp)
   10c78:	03212023          	sw	s2,32(sp)
   10c7c:	008004b7          	lui	s1,0x800
   10c80:	01755913          	srli	s2,a0,0x17
   10c84:	01312e23          	sw	s3,28(sp)
   10c88:	01712623          	sw	s7,12(sp)
   10c8c:	fff48493          	addi	s1,s1,-1 # 7fffff <__global_pointer$+0x7ec387>
   10c90:	02112623          	sw	ra,44(sp)
   10c94:	02812423          	sw	s0,40(sp)
   10c98:	01412c23          	sw	s4,24(sp)
   10c9c:	01512a23          	sw	s5,20(sp)
   10ca0:	01612823          	sw	s6,16(sp)
   10ca4:	01812423          	sw	s8,8(sp)
   10ca8:	01912223          	sw	s9,4(sp)
   10cac:	0ff97913          	andi	s2,s2,255
   10cb0:	00058b93          	mv	s7,a1
   10cb4:	00a4f4b3          	and	s1,s1,a0
   10cb8:	01f55993          	srli	s3,a0,0x1f
   10cbc:	08090863          	beqz	s2,10d4c <__mulsf3+0xdc>
   10cc0:	0ff00793          	li	a5,255
   10cc4:	0af90463          	beq	s2,a5,10d6c <__mulsf3+0xfc>
   10cc8:	00349493          	slli	s1,s1,0x3
   10ccc:	040007b7          	lui	a5,0x4000
   10cd0:	00f4e4b3          	or	s1,s1,a5
   10cd4:	f8190913          	addi	s2,s2,-127
   10cd8:	00000b13          	li	s6,0
   10cdc:	017bd513          	srli	a0,s7,0x17
   10ce0:	00800437          	lui	s0,0x800
   10ce4:	fff40413          	addi	s0,s0,-1 # 7fffff <__global_pointer$+0x7ec387>
   10ce8:	0ff57513          	andi	a0,a0,255
   10cec:	01747433          	and	s0,s0,s7
   10cf0:	01fbdb93          	srli	s7,s7,0x1f
   10cf4:	08050c63          	beqz	a0,10d8c <__mulsf3+0x11c>
   10cf8:	0ff00793          	li	a5,255
   10cfc:	0af50863          	beq	a0,a5,10dac <__mulsf3+0x13c>
   10d00:	00341413          	slli	s0,s0,0x3
   10d04:	040007b7          	lui	a5,0x4000
   10d08:	00f46433          	or	s0,s0,a5
   10d0c:	f8150513          	addi	a0,a0,-127
   10d10:	00000693          	li	a3,0
   10d14:	002b1793          	slli	a5,s6,0x2
   10d18:	00d7e7b3          	or	a5,a5,a3
   10d1c:	00a90933          	add	s2,s2,a0
   10d20:	fff78793          	addi	a5,a5,-1 # 3ffffff <__global_pointer$+0x3fec387>
   10d24:	00e00713          	li	a4,14
   10d28:	0179ca33          	xor	s4,s3,s7
   10d2c:	00190a93          	addi	s5,s2,1
   10d30:	08f76e63          	bltu	a4,a5,10dcc <__mulsf3+0x15c>
   10d34:	00012737          	lui	a4,0x12
   10d38:	00279793          	slli	a5,a5,0x2
   10d3c:	f0870713          	addi	a4,a4,-248 # 11f08 <__errno+0x60>
   10d40:	00e787b3          	add	a5,a5,a4
   10d44:	0007a783          	lw	a5,0(a5)
   10d48:	00078067          	jr	a5
   10d4c:	02048a63          	beqz	s1,10d80 <__mulsf3+0x110>
   10d50:	00048513          	mv	a0,s1
   10d54:	7d8000ef          	jal	ra,1152c <__clzsi2>
   10d58:	ffb50793          	addi	a5,a0,-5
   10d5c:	f8a00913          	li	s2,-118
   10d60:	00f494b3          	sll	s1,s1,a5
   10d64:	40a90933          	sub	s2,s2,a0
   10d68:	f71ff06f          	j	10cd8 <__mulsf3+0x68>
   10d6c:	0ff00913          	li	s2,255
   10d70:	00200b13          	li	s6,2
   10d74:	f60484e3          	beqz	s1,10cdc <__mulsf3+0x6c>
   10d78:	00300b13          	li	s6,3
   10d7c:	f61ff06f          	j	10cdc <__mulsf3+0x6c>
   10d80:	00000913          	li	s2,0
   10d84:	00100b13          	li	s6,1
   10d88:	f55ff06f          	j	10cdc <__mulsf3+0x6c>
   10d8c:	02040a63          	beqz	s0,10dc0 <__mulsf3+0x150>
   10d90:	00040513          	mv	a0,s0
   10d94:	798000ef          	jal	ra,1152c <__clzsi2>
   10d98:	ffb50793          	addi	a5,a0,-5
   10d9c:	00f41433          	sll	s0,s0,a5
   10da0:	f8a00793          	li	a5,-118
   10da4:	40a78533          	sub	a0,a5,a0
   10da8:	f69ff06f          	j	10d10 <__mulsf3+0xa0>
   10dac:	0ff00513          	li	a0,255
   10db0:	00200693          	li	a3,2
   10db4:	f60400e3          	beqz	s0,10d14 <__mulsf3+0xa4>
   10db8:	00300693          	li	a3,3
   10dbc:	f59ff06f          	j	10d14 <__mulsf3+0xa4>
   10dc0:	00000513          	li	a0,0
   10dc4:	00100693          	li	a3,1
   10dc8:	f4dff06f          	j	10d14 <__mulsf3+0xa4>
   10dcc:	00010c37          	lui	s8,0x10
   10dd0:	fffc0b13          	addi	s6,s8,-1 # ffff <_start-0x75>
   10dd4:	0104db93          	srli	s7,s1,0x10
   10dd8:	01045c93          	srli	s9,s0,0x10
   10ddc:	0164f4b3          	and	s1,s1,s6
   10de0:	01647433          	and	s0,s0,s6
   10de4:	00040593          	mv	a1,s0
   10de8:	00048513          	mv	a0,s1
   10dec:	668000ef          	jal	ra,11454 <__mulsi3>
   10df0:	00040593          	mv	a1,s0
   10df4:	00050993          	mv	s3,a0
   10df8:	000b8513          	mv	a0,s7
   10dfc:	658000ef          	jal	ra,11454 <__mulsi3>
   10e00:	00050413          	mv	s0,a0
   10e04:	000c8593          	mv	a1,s9
   10e08:	000b8513          	mv	a0,s7
   10e0c:	648000ef          	jal	ra,11454 <__mulsi3>
   10e10:	00050b93          	mv	s7,a0
   10e14:	00048593          	mv	a1,s1
   10e18:	000c8513          	mv	a0,s9
   10e1c:	638000ef          	jal	ra,11454 <__mulsi3>
   10e20:	00850533          	add	a0,a0,s0
   10e24:	0109d793          	srli	a5,s3,0x10
   10e28:	00a78533          	add	a0,a5,a0
   10e2c:	00857463          	bleu	s0,a0,10e34 <__mulsf3+0x1c4>
   10e30:	018b8bb3          	add	s7,s7,s8
   10e34:	016577b3          	and	a5,a0,s6
   10e38:	01079793          	slli	a5,a5,0x10
   10e3c:	0169f9b3          	and	s3,s3,s6
   10e40:	013787b3          	add	a5,a5,s3
   10e44:	00679413          	slli	s0,a5,0x6
   10e48:	00803433          	snez	s0,s0
   10e4c:	01a7d793          	srli	a5,a5,0x1a
   10e50:	01055513          	srli	a0,a0,0x10
   10e54:	00f467b3          	or	a5,s0,a5
   10e58:	01750433          	add	s0,a0,s7
   10e5c:	00641413          	slli	s0,s0,0x6
   10e60:	00f46433          	or	s0,s0,a5
   10e64:	00441793          	slli	a5,s0,0x4
   10e68:	0e07d663          	bgez	a5,10f54 <__mulsf3+0x2e4>
   10e6c:	00145793          	srli	a5,s0,0x1
   10e70:	00147413          	andi	s0,s0,1
   10e74:	0087e433          	or	s0,a5,s0
   10e78:	07fa8713          	addi	a4,s5,127
   10e7c:	0ee05063          	blez	a4,10f5c <__mulsf3+0x2ec>
   10e80:	00747793          	andi	a5,s0,7
   10e84:	00078a63          	beqz	a5,10e98 <__mulsf3+0x228>
   10e88:	00f47793          	andi	a5,s0,15
   10e8c:	00400693          	li	a3,4
   10e90:	00d78463          	beq	a5,a3,10e98 <__mulsf3+0x228>
   10e94:	00440413          	addi	s0,s0,4
   10e98:	00441793          	slli	a5,s0,0x4
   10e9c:	0007da63          	bgez	a5,10eb0 <__mulsf3+0x240>
   10ea0:	f80007b7          	lui	a5,0xf8000
   10ea4:	fff78793          	addi	a5,a5,-1 # f7ffffff <__global_pointer$+0xf7fec387>
   10ea8:	00f47433          	and	s0,s0,a5
   10eac:	080a8713          	addi	a4,s5,128
   10eb0:	0fe00793          	li	a5,254
   10eb4:	10e7c463          	blt	a5,a4,10fbc <__mulsf3+0x34c>
   10eb8:	00345793          	srli	a5,s0,0x3
   10ebc:	0300006f          	j	10eec <__mulsf3+0x27c>
   10ec0:	00098a13          	mv	s4,s3
   10ec4:	00048413          	mv	s0,s1
   10ec8:	000b0693          	mv	a3,s6
   10ecc:	00200793          	li	a5,2
   10ed0:	0ef68663          	beq	a3,a5,10fbc <__mulsf3+0x34c>
   10ed4:	00300793          	li	a5,3
   10ed8:	0cf68a63          	beq	a3,a5,10fac <__mulsf3+0x33c>
   10edc:	00100613          	li	a2,1
   10ee0:	00000793          	li	a5,0
   10ee4:	00000713          	li	a4,0
   10ee8:	f8c698e3          	bne	a3,a2,10e78 <__mulsf3+0x208>
   10eec:	00800437          	lui	s0,0x800
   10ef0:	fff40413          	addi	s0,s0,-1 # 7fffff <__global_pointer$+0x7ec387>
   10ef4:	80800537          	lui	a0,0x80800
   10ef8:	0087f7b3          	and	a5,a5,s0
   10efc:	fff50513          	addi	a0,a0,-1 # 807fffff <__global_pointer$+0x807ec387>
   10f00:	02c12083          	lw	ra,44(sp)
   10f04:	02812403          	lw	s0,40(sp)
   10f08:	0ff77713          	andi	a4,a4,255
   10f0c:	00a7f7b3          	and	a5,a5,a0
   10f10:	01771713          	slli	a4,a4,0x17
   10f14:	01fa1513          	slli	a0,s4,0x1f
   10f18:	00e7e7b3          	or	a5,a5,a4
   10f1c:	02412483          	lw	s1,36(sp)
   10f20:	02012903          	lw	s2,32(sp)
   10f24:	01c12983          	lw	s3,28(sp)
   10f28:	01812a03          	lw	s4,24(sp)
   10f2c:	01412a83          	lw	s5,20(sp)
   10f30:	01012b03          	lw	s6,16(sp)
   10f34:	00c12b83          	lw	s7,12(sp)
   10f38:	00812c03          	lw	s8,8(sp)
   10f3c:	00412c83          	lw	s9,4(sp)
   10f40:	00a7e533          	or	a0,a5,a0
   10f44:	03010113          	addi	sp,sp,48
   10f48:	00008067          	ret
   10f4c:	000b8a13          	mv	s4,s7
   10f50:	f7dff06f          	j	10ecc <__mulsf3+0x25c>
   10f54:	00090a93          	mv	s5,s2
   10f58:	f21ff06f          	j	10e78 <__mulsf3+0x208>
   10f5c:	00100793          	li	a5,1
   10f60:	40e787b3          	sub	a5,a5,a4
   10f64:	01b00713          	li	a4,27
   10f68:	06f74063          	blt	a4,a5,10fc8 <__mulsf3+0x358>
   10f6c:	09ea8a93          	addi	s5,s5,158
   10f70:	00f457b3          	srl	a5,s0,a5
   10f74:	01541433          	sll	s0,s0,s5
   10f78:	00803433          	snez	s0,s0
   10f7c:	0087e433          	or	s0,a5,s0
   10f80:	00747793          	andi	a5,s0,7
   10f84:	00078a63          	beqz	a5,10f98 <__mulsf3+0x328>
   10f88:	00f47793          	andi	a5,s0,15
   10f8c:	00400713          	li	a4,4
   10f90:	00e78463          	beq	a5,a4,10f98 <__mulsf3+0x328>
   10f94:	00440413          	addi	s0,s0,4
   10f98:	00541793          	slli	a5,s0,0x5
   10f9c:	0207ca63          	bltz	a5,10fd0 <__mulsf3+0x360>
   10fa0:	00345793          	srli	a5,s0,0x3
   10fa4:	00000713          	li	a4,0
   10fa8:	f45ff06f          	j	10eec <__mulsf3+0x27c>
   10fac:	004007b7          	lui	a5,0x400
   10fb0:	0ff00713          	li	a4,255
   10fb4:	00000a13          	li	s4,0
   10fb8:	f35ff06f          	j	10eec <__mulsf3+0x27c>
   10fbc:	00000793          	li	a5,0
   10fc0:	0ff00713          	li	a4,255
   10fc4:	f29ff06f          	j	10eec <__mulsf3+0x27c>
   10fc8:	00000793          	li	a5,0
   10fcc:	fd9ff06f          	j	10fa4 <__mulsf3+0x334>
   10fd0:	00000793          	li	a5,0
   10fd4:	00100713          	li	a4,1
   10fd8:	f15ff06f          	j	10eec <__mulsf3+0x27c>

00010fdc <__subsf3>:
   10fdc:	008007b7          	lui	a5,0x800
   10fe0:	fff78793          	addi	a5,a5,-1 # 7fffff <__global_pointer$+0x7ec387>
   10fe4:	ff010113          	addi	sp,sp,-16
   10fe8:	00a7f733          	and	a4,a5,a0
   10fec:	01755693          	srli	a3,a0,0x17
   10ff0:	0175d613          	srli	a2,a1,0x17
   10ff4:	00b7f7b3          	and	a5,a5,a1
   10ff8:	00912223          	sw	s1,4(sp)
   10ffc:	01212023          	sw	s2,0(sp)
   11000:	0ff6f693          	andi	a3,a3,255
   11004:	00371813          	slli	a6,a4,0x3
   11008:	0ff67613          	andi	a2,a2,255
   1100c:	00112623          	sw	ra,12(sp)
   11010:	00812423          	sw	s0,8(sp)
   11014:	0ff00713          	li	a4,255
   11018:	01f55493          	srli	s1,a0,0x1f
   1101c:	00068913          	mv	s2,a3
   11020:	00060513          	mv	a0,a2
   11024:	01f5d593          	srli	a1,a1,0x1f
   11028:	00379793          	slli	a5,a5,0x3
   1102c:	00e61463          	bne	a2,a4,11034 <__subsf3+0x58>
   11030:	00079463          	bnez	a5,11038 <__subsf3+0x5c>
   11034:	0015c593          	xori	a1,a1,1
   11038:	40c68733          	sub	a4,a3,a2
   1103c:	1a959a63          	bne	a1,s1,111f0 <__subsf3+0x214>
   11040:	0ae05663          	blez	a4,110ec <__subsf3+0x110>
   11044:	06061663          	bnez	a2,110b0 <__subsf3+0xd4>
   11048:	00079c63          	bnez	a5,11060 <__subsf3+0x84>
   1104c:	0ff00793          	li	a5,255
   11050:	04f68c63          	beq	a3,a5,110a8 <__subsf3+0xcc>
   11054:	00080793          	mv	a5,a6
   11058:	00068513          	mv	a0,a3
   1105c:	14c0006f          	j	111a8 <__subsf3+0x1cc>
   11060:	fff70713          	addi	a4,a4,-1
   11064:	02071e63          	bnez	a4,110a0 <__subsf3+0xc4>
   11068:	010787b3          	add	a5,a5,a6
   1106c:	00068513          	mv	a0,a3
   11070:	00579713          	slli	a4,a5,0x5
   11074:	12075a63          	bgez	a4,111a8 <__subsf3+0x1cc>
   11078:	00150513          	addi	a0,a0,1
   1107c:	0ff00713          	li	a4,255
   11080:	32e50e63          	beq	a0,a4,113bc <__subsf3+0x3e0>
   11084:	7e000737          	lui	a4,0x7e000
   11088:	0017f693          	andi	a3,a5,1
   1108c:	fff70713          	addi	a4,a4,-1 # 7dffffff <__global_pointer$+0x7dfec387>
   11090:	0017d793          	srli	a5,a5,0x1
   11094:	00e7f7b3          	and	a5,a5,a4
   11098:	00d7e7b3          	or	a5,a5,a3
   1109c:	10c0006f          	j	111a8 <__subsf3+0x1cc>
   110a0:	0ff00613          	li	a2,255
   110a4:	00c69e63          	bne	a3,a2,110c0 <__subsf3+0xe4>
   110a8:	00080793          	mv	a5,a6
   110ac:	0740006f          	j	11120 <__subsf3+0x144>
   110b0:	0ff00613          	li	a2,255
   110b4:	fec68ae3          	beq	a3,a2,110a8 <__subsf3+0xcc>
   110b8:	04000637          	lui	a2,0x4000
   110bc:	00c7e7b3          	or	a5,a5,a2
   110c0:	01b00613          	li	a2,27
   110c4:	00e65663          	ble	a4,a2,110d0 <__subsf3+0xf4>
   110c8:	00100793          	li	a5,1
   110cc:	f9dff06f          	j	11068 <__subsf3+0x8c>
   110d0:	02000613          	li	a2,32
   110d4:	40e60633          	sub	a2,a2,a4
   110d8:	00e7d5b3          	srl	a1,a5,a4
   110dc:	00c797b3          	sll	a5,a5,a2
   110e0:	00f037b3          	snez	a5,a5
   110e4:	00f5e7b3          	or	a5,a1,a5
   110e8:	f81ff06f          	j	11068 <__subsf3+0x8c>
   110ec:	08070063          	beqz	a4,1116c <__subsf3+0x190>
   110f0:	02069c63          	bnez	a3,11128 <__subsf3+0x14c>
   110f4:	00081863          	bnez	a6,11104 <__subsf3+0x128>
   110f8:	0ff00713          	li	a4,255
   110fc:	0ae61663          	bne	a2,a4,111a8 <__subsf3+0x1cc>
   11100:	0200006f          	j	11120 <__subsf3+0x144>
   11104:	fff00693          	li	a3,-1
   11108:	00d71663          	bne	a4,a3,11114 <__subsf3+0x138>
   1110c:	010787b3          	add	a5,a5,a6
   11110:	f61ff06f          	j	11070 <__subsf3+0x94>
   11114:	0ff00693          	li	a3,255
   11118:	fff74713          	not	a4,a4
   1111c:	02d61063          	bne	a2,a3,1113c <__subsf3+0x160>
   11120:	0ff00513          	li	a0,255
   11124:	0840006f          	j	111a8 <__subsf3+0x1cc>
   11128:	0ff00693          	li	a3,255
   1112c:	fed60ae3          	beq	a2,a3,11120 <__subsf3+0x144>
   11130:	040006b7          	lui	a3,0x4000
   11134:	40e00733          	neg	a4,a4
   11138:	00d86833          	or	a6,a6,a3
   1113c:	01b00693          	li	a3,27
   11140:	00e6d663          	ble	a4,a3,1114c <__subsf3+0x170>
   11144:	00100713          	li	a4,1
   11148:	01c0006f          	j	11164 <__subsf3+0x188>
   1114c:	02000693          	li	a3,32
   11150:	00e85633          	srl	a2,a6,a4
   11154:	40e68733          	sub	a4,a3,a4
   11158:	00e81733          	sll	a4,a6,a4
   1115c:	00e03733          	snez	a4,a4
   11160:	00e66733          	or	a4,a2,a4
   11164:	00e787b3          	add	a5,a5,a4
   11168:	f09ff06f          	j	11070 <__subsf3+0x94>
   1116c:	00168513          	addi	a0,a3,1 # 4000001 <__global_pointer$+0x3fec389>
   11170:	0ff57613          	andi	a2,a0,255
   11174:	00100713          	li	a4,1
   11178:	06c74263          	blt	a4,a2,111dc <__subsf3+0x200>
   1117c:	04069463          	bnez	a3,111c4 <__subsf3+0x1e8>
   11180:	00000513          	li	a0,0
   11184:	02080263          	beqz	a6,111a8 <__subsf3+0x1cc>
   11188:	22078663          	beqz	a5,113b4 <__subsf3+0x3d8>
   1118c:	010787b3          	add	a5,a5,a6
   11190:	00579713          	slli	a4,a5,0x5
   11194:	00075a63          	bgez	a4,111a8 <__subsf3+0x1cc>
   11198:	fc000737          	lui	a4,0xfc000
   1119c:	fff70713          	addi	a4,a4,-1 # fbffffff <__global_pointer$+0xfbfec387>
   111a0:	00e7f7b3          	and	a5,a5,a4
   111a4:	00100513          	li	a0,1
   111a8:	0077f713          	andi	a4,a5,7
   111ac:	20070a63          	beqz	a4,113c0 <__subsf3+0x3e4>
   111b0:	00f7f713          	andi	a4,a5,15
   111b4:	00400693          	li	a3,4
   111b8:	20d70463          	beq	a4,a3,113c0 <__subsf3+0x3e4>
   111bc:	00478793          	addi	a5,a5,4
   111c0:	2000006f          	j	113c0 <__subsf3+0x3e4>
   111c4:	f4080ee3          	beqz	a6,11120 <__subsf3+0x144>
   111c8:	ee0780e3          	beqz	a5,110a8 <__subsf3+0xcc>
   111cc:	020007b7          	lui	a5,0x2000
   111d0:	0ff00513          	li	a0,255
   111d4:	00000493          	li	s1,0
   111d8:	1e80006f          	j	113c0 <__subsf3+0x3e4>
   111dc:	0ff00713          	li	a4,255
   111e0:	1ce50e63          	beq	a0,a4,113bc <__subsf3+0x3e0>
   111e4:	00f80733          	add	a4,a6,a5
   111e8:	00175793          	srli	a5,a4,0x1
   111ec:	fbdff06f          	j	111a8 <__subsf3+0x1cc>
   111f0:	08e05063          	blez	a4,11270 <__subsf3+0x294>
   111f4:	04061663          	bnez	a2,11240 <__subsf3+0x264>
   111f8:	e4078ae3          	beqz	a5,1104c <__subsf3+0x70>
   111fc:	fff70713          	addi	a4,a4,-1
   11200:	02071463          	bnez	a4,11228 <__subsf3+0x24c>
   11204:	40f807b3          	sub	a5,a6,a5
   11208:	00068513          	mv	a0,a3
   1120c:	00579713          	slli	a4,a5,0x5
   11210:	f8075ce3          	bgez	a4,111a8 <__subsf3+0x1cc>
   11214:	04000437          	lui	s0,0x4000
   11218:	fff40413          	addi	s0,s0,-1 # 3ffffff <__global_pointer$+0x3fec387>
   1121c:	0087f433          	and	s0,a5,s0
   11220:	00050913          	mv	s2,a0
   11224:	1380006f          	j	1135c <__subsf3+0x380>
   11228:	0ff00613          	li	a2,255
   1122c:	e6c68ee3          	beq	a3,a2,110a8 <__subsf3+0xcc>
   11230:	01b00613          	li	a2,27
   11234:	02e65063          	ble	a4,a2,11254 <__subsf3+0x278>
   11238:	00100793          	li	a5,1
   1123c:	fc9ff06f          	j	11204 <__subsf3+0x228>
   11240:	0ff00613          	li	a2,255
   11244:	e6c682e3          	beq	a3,a2,110a8 <__subsf3+0xcc>
   11248:	04000637          	lui	a2,0x4000
   1124c:	00c7e7b3          	or	a5,a5,a2
   11250:	fe1ff06f          	j	11230 <__subsf3+0x254>
   11254:	02000613          	li	a2,32
   11258:	00e7d5b3          	srl	a1,a5,a4
   1125c:	40e60733          	sub	a4,a2,a4
   11260:	00e797b3          	sll	a5,a5,a4
   11264:	00f037b3          	snez	a5,a5
   11268:	00f5e7b3          	or	a5,a1,a5
   1126c:	f99ff06f          	j	11204 <__subsf3+0x228>
   11270:	08070263          	beqz	a4,112f4 <__subsf3+0x318>
   11274:	02069e63          	bnez	a3,112b0 <__subsf3+0x2d4>
   11278:	00081863          	bnez	a6,11288 <__subsf3+0x2ac>
   1127c:	0ff00713          	li	a4,255
   11280:	00058493          	mv	s1,a1
   11284:	e79ff06f          	j	110fc <__subsf3+0x120>
   11288:	fff00693          	li	a3,-1
   1128c:	00d71863          	bne	a4,a3,1129c <__subsf3+0x2c0>
   11290:	410787b3          	sub	a5,a5,a6
   11294:	00058493          	mv	s1,a1
   11298:	f75ff06f          	j	1120c <__subsf3+0x230>
   1129c:	0ff00693          	li	a3,255
   112a0:	fff74713          	not	a4,a4
   112a4:	02d61063          	bne	a2,a3,112c4 <__subsf3+0x2e8>
   112a8:	00058493          	mv	s1,a1
   112ac:	e75ff06f          	j	11120 <__subsf3+0x144>
   112b0:	0ff00693          	li	a3,255
   112b4:	fed60ae3          	beq	a2,a3,112a8 <__subsf3+0x2cc>
   112b8:	040006b7          	lui	a3,0x4000
   112bc:	40e00733          	neg	a4,a4
   112c0:	00d86833          	or	a6,a6,a3
   112c4:	01b00693          	li	a3,27
   112c8:	00e6d663          	ble	a4,a3,112d4 <__subsf3+0x2f8>
   112cc:	00100713          	li	a4,1
   112d0:	01c0006f          	j	112ec <__subsf3+0x310>
   112d4:	02000693          	li	a3,32
   112d8:	00e85633          	srl	a2,a6,a4
   112dc:	40e68733          	sub	a4,a3,a4
   112e0:	00e81733          	sll	a4,a6,a4
   112e4:	00e03733          	snez	a4,a4
   112e8:	00e66733          	or	a4,a2,a4
   112ec:	40e787b3          	sub	a5,a5,a4
   112f0:	fa5ff06f          	j	11294 <__subsf3+0x2b8>
   112f4:	00168713          	addi	a4,a3,1 # 4000001 <__global_pointer$+0x3fec389>
   112f8:	0ff77713          	andi	a4,a4,255
   112fc:	00100613          	li	a2,1
   11300:	04e64463          	blt	a2,a4,11348 <__subsf3+0x36c>
   11304:	02069c63          	bnez	a3,1133c <__subsf3+0x360>
   11308:	00081863          	bnez	a6,11318 <__subsf3+0x33c>
   1130c:	12079863          	bnez	a5,1143c <__subsf3+0x460>
   11310:	00000513          	li	a0,0
   11314:	ec1ff06f          	j	111d4 <__subsf3+0x1f8>
   11318:	12078663          	beqz	a5,11444 <__subsf3+0x468>
   1131c:	40f80733          	sub	a4,a6,a5
   11320:	00571693          	slli	a3,a4,0x5
   11324:	410787b3          	sub	a5,a5,a6
   11328:	1006ca63          	bltz	a3,1143c <__subsf3+0x460>
   1132c:	00070793          	mv	a5,a4
   11330:	06071063          	bnez	a4,11390 <__subsf3+0x3b4>
   11334:	00000793          	li	a5,0
   11338:	fd9ff06f          	j	11310 <__subsf3+0x334>
   1133c:	e80816e3          	bnez	a6,111c8 <__subsf3+0x1ec>
   11340:	f60794e3          	bnez	a5,112a8 <__subsf3+0x2cc>
   11344:	e89ff06f          	j	111cc <__subsf3+0x1f0>
   11348:	40f80433          	sub	s0,a6,a5
   1134c:	00541713          	slli	a4,s0,0x5
   11350:	04075463          	bgez	a4,11398 <__subsf3+0x3bc>
   11354:	41078433          	sub	s0,a5,a6
   11358:	00058493          	mv	s1,a1
   1135c:	00040513          	mv	a0,s0
   11360:	1cc000ef          	jal	ra,1152c <__clzsi2>
   11364:	ffb50513          	addi	a0,a0,-5
   11368:	00a41433          	sll	s0,s0,a0
   1136c:	03254a63          	blt	a0,s2,113a0 <__subsf3+0x3c4>
   11370:	41250533          	sub	a0,a0,s2
   11374:	00150513          	addi	a0,a0,1
   11378:	02000713          	li	a4,32
   1137c:	00a457b3          	srl	a5,s0,a0
   11380:	40a70533          	sub	a0,a4,a0
   11384:	00a41433          	sll	s0,s0,a0
   11388:	00803433          	snez	s0,s0
   1138c:	0087e7b3          	or	a5,a5,s0
   11390:	00000513          	li	a0,0
   11394:	e15ff06f          	j	111a8 <__subsf3+0x1cc>
   11398:	f8040ee3          	beqz	s0,11334 <__subsf3+0x358>
   1139c:	fc1ff06f          	j	1135c <__subsf3+0x380>
   113a0:	fc0007b7          	lui	a5,0xfc000
   113a4:	fff78793          	addi	a5,a5,-1 # fbffffff <__global_pointer$+0xfbfec387>
   113a8:	40a90533          	sub	a0,s2,a0
   113ac:	00f477b3          	and	a5,s0,a5
   113b0:	df9ff06f          	j	111a8 <__subsf3+0x1cc>
   113b4:	00080793          	mv	a5,a6
   113b8:	df1ff06f          	j	111a8 <__subsf3+0x1cc>
   113bc:	00000793          	li	a5,0
   113c0:	00579713          	slli	a4,a5,0x5
   113c4:	00075e63          	bgez	a4,113e0 <__subsf3+0x404>
   113c8:	00150513          	addi	a0,a0,1
   113cc:	0ff00713          	li	a4,255
   113d0:	06e50e63          	beq	a0,a4,1144c <__subsf3+0x470>
   113d4:	fc000737          	lui	a4,0xfc000
   113d8:	fff70713          	addi	a4,a4,-1 # fbffffff <__global_pointer$+0xfbfec387>
   113dc:	00e7f7b3          	and	a5,a5,a4
   113e0:	0ff00713          	li	a4,255
   113e4:	0037d793          	srli	a5,a5,0x3
   113e8:	00e51863          	bne	a0,a4,113f8 <__subsf3+0x41c>
   113ec:	00078663          	beqz	a5,113f8 <__subsf3+0x41c>
   113f0:	004007b7          	lui	a5,0x400
   113f4:	00000493          	li	s1,0
   113f8:	00800737          	lui	a4,0x800
   113fc:	fff70713          	addi	a4,a4,-1 # 7fffff <__global_pointer$+0x7ec387>
   11400:	0ff57513          	andi	a0,a0,255
   11404:	00e7f7b3          	and	a5,a5,a4
   11408:	01751713          	slli	a4,a0,0x17
   1140c:	80800537          	lui	a0,0x80800
   11410:	00c12083          	lw	ra,12(sp)
   11414:	00812403          	lw	s0,8(sp)
   11418:	fff50513          	addi	a0,a0,-1 # 807fffff <__global_pointer$+0x807ec387>
   1141c:	00a7f533          	and	a0,a5,a0
   11420:	01f49493          	slli	s1,s1,0x1f
   11424:	00e56533          	or	a0,a0,a4
   11428:	00956533          	or	a0,a0,s1
   1142c:	00012903          	lw	s2,0(sp)
   11430:	00412483          	lw	s1,4(sp)
   11434:	01010113          	addi	sp,sp,16
   11438:	00008067          	ret
   1143c:	00058493          	mv	s1,a1
   11440:	f51ff06f          	j	11390 <__subsf3+0x3b4>
   11444:	00080793          	mv	a5,a6
   11448:	f49ff06f          	j	11390 <__subsf3+0x3b4>
   1144c:	00000793          	li	a5,0
   11450:	f91ff06f          	j	113e0 <__subsf3+0x404>

00011454 <__mulsi3>:
   11454:	00050613          	mv	a2,a0
   11458:	00000513          	li	a0,0
   1145c:	0015f693          	andi	a3,a1,1
   11460:	00068463          	beqz	a3,11468 <__mulsi3+0x14>
   11464:	00c50533          	add	a0,a0,a2
   11468:	0015d593          	srli	a1,a1,0x1
   1146c:	00161613          	slli	a2,a2,0x1
   11470:	fe0596e3          	bnez	a1,1145c <__mulsi3+0x8>
   11474:	00008067          	ret

00011478 <__divsi3>:
   11478:	06054063          	bltz	a0,114d8 <__umodsi3+0x10>
   1147c:	0605c663          	bltz	a1,114e8 <__umodsi3+0x20>

00011480 <__udivsi3>:
   11480:	00058613          	mv	a2,a1
   11484:	00050593          	mv	a1,a0
   11488:	fff00513          	li	a0,-1
   1148c:	02060c63          	beqz	a2,114c4 <__udivsi3+0x44>
   11490:	00100693          	li	a3,1
   11494:	00b67a63          	bleu	a1,a2,114a8 <__udivsi3+0x28>
   11498:	00c05863          	blez	a2,114a8 <__udivsi3+0x28>
   1149c:	00161613          	slli	a2,a2,0x1
   114a0:	00169693          	slli	a3,a3,0x1
   114a4:	feb66ae3          	bltu	a2,a1,11498 <__udivsi3+0x18>
   114a8:	00000513          	li	a0,0
   114ac:	00c5e663          	bltu	a1,a2,114b8 <__udivsi3+0x38>
   114b0:	40c585b3          	sub	a1,a1,a2
   114b4:	00d56533          	or	a0,a0,a3
   114b8:	0016d693          	srli	a3,a3,0x1
   114bc:	00165613          	srli	a2,a2,0x1
   114c0:	fe0696e3          	bnez	a3,114ac <__udivsi3+0x2c>
   114c4:	00008067          	ret

000114c8 <__umodsi3>:
   114c8:	00008293          	mv	t0,ra
   114cc:	fb5ff0ef          	jal	ra,11480 <__udivsi3>
   114d0:	00058513          	mv	a0,a1
   114d4:	00028067          	jr	t0
   114d8:	40a00533          	neg	a0,a0
   114dc:	0005d863          	bgez	a1,114ec <__umodsi3+0x24>
   114e0:	40b005b3          	neg	a1,a1
   114e4:	f9dff06f          	j	11480 <__udivsi3>
   114e8:	40b005b3          	neg	a1,a1
   114ec:	00008293          	mv	t0,ra
   114f0:	f91ff0ef          	jal	ra,11480 <__udivsi3>
   114f4:	40a00533          	neg	a0,a0
   114f8:	00028067          	jr	t0

000114fc <__modsi3>:
   114fc:	00008293          	mv	t0,ra
   11500:	0005ca63          	bltz	a1,11514 <__modsi3+0x18>
   11504:	00054c63          	bltz	a0,1151c <__modsi3+0x20>
   11508:	f79ff0ef          	jal	ra,11480 <__udivsi3>
   1150c:	00058513          	mv	a0,a1
   11510:	00028067          	jr	t0
   11514:	40b005b3          	neg	a1,a1
   11518:	fe0558e3          	bgez	a0,11508 <__modsi3+0xc>
   1151c:	40a00533          	neg	a0,a0
   11520:	f61ff0ef          	jal	ra,11480 <__udivsi3>
   11524:	40b00533          	neg	a0,a1
   11528:	00028067          	jr	t0

0001152c <__clzsi2>:
   1152c:	000107b7          	lui	a5,0x10
   11530:	02f57a63          	bleu	a5,a0,11564 <__clzsi2+0x38>
   11534:	0ff00793          	li	a5,255
   11538:	00a7b7b3          	sltu	a5,a5,a0
   1153c:	00379793          	slli	a5,a5,0x3
   11540:	02000713          	li	a4,32
   11544:	40f70733          	sub	a4,a4,a5
   11548:	00f557b3          	srl	a5,a0,a5
   1154c:	00012537          	lui	a0,0x12
   11550:	f4450513          	addi	a0,a0,-188 # 11f44 <__clz_tab>
   11554:	00a787b3          	add	a5,a5,a0
   11558:	0007c503          	lbu	a0,0(a5) # 10000 <_start-0x74>
   1155c:	40a70533          	sub	a0,a4,a0
   11560:	00008067          	ret
   11564:	01000737          	lui	a4,0x1000
   11568:	01000793          	li	a5,16
   1156c:	fce56ae3          	bltu	a0,a4,11540 <__clzsi2+0x14>
   11570:	01800793          	li	a5,24
   11574:	fcdff06f          	j	11540 <__clzsi2+0x14>

00011578 <atexit>:
   11578:	00050593          	mv	a1,a0
   1157c:	00000693          	li	a3,0
   11580:	00000613          	li	a2,0
   11584:	00000513          	li	a0,0
   11588:	2240006f          	j	117ac <__register_exitproc>

0001158c <exit>:
   1158c:	ff010113          	addi	sp,sp,-16
   11590:	00000593          	li	a1,0
   11594:	00812423          	sw	s0,8(sp)
   11598:	00112623          	sw	ra,12(sp)
   1159c:	00050413          	mv	s0,a0
   115a0:	28c000ef          	jal	ra,1182c <__call_exitprocs>
   115a4:	000137b7          	lui	a5,0x13
   115a8:	47c7a503          	lw	a0,1148(a5) # 1347c <_global_impure_ptr>
   115ac:	03c52783          	lw	a5,60(a0)
   115b0:	00078463          	beqz	a5,115b8 <exit+0x2c>
   115b4:	000780e7          	jalr	a5
   115b8:	00040513          	mv	a0,s0
   115bc:	0c9000ef          	jal	ra,11e84 <_exit>

000115c0 <__libc_fini_array>:
   115c0:	ff010113          	addi	sp,sp,-16
   115c4:	000137b7          	lui	a5,0x13
   115c8:	00013737          	lui	a4,0x13
   115cc:	00812423          	sw	s0,8(sp)
   115d0:	04c70713          	addi	a4,a4,76 # 1304c <__init_array_end>
   115d4:	05078413          	addi	s0,a5,80 # 13050 <__fini_array_end>
   115d8:	40e40433          	sub	s0,s0,a4
   115dc:	00912223          	sw	s1,4(sp)
   115e0:	01212023          	sw	s2,0(sp)
   115e4:	00112623          	sw	ra,12(sp)
   115e8:	40245413          	srai	s0,s0,0x2
   115ec:	00000493          	li	s1,0
   115f0:	05078913          	addi	s2,a5,80
   115f4:	00941e63          	bne	s0,s1,11610 <__libc_fini_array+0x50>
   115f8:	00812403          	lw	s0,8(sp)
   115fc:	00c12083          	lw	ra,12(sp)
   11600:	00412483          	lw	s1,4(sp)
   11604:	00012903          	lw	s2,0(sp)
   11608:	01010113          	addi	sp,sp,16
   1160c:	aa9fe06f          	j	100b4 <_fini>
   11610:	ffc00593          	li	a1,-4
   11614:	00048513          	mv	a0,s1
   11618:	e3dff0ef          	jal	ra,11454 <__mulsi3>
   1161c:	00a90533          	add	a0,s2,a0
   11620:	ffc52783          	lw	a5,-4(a0)
   11624:	00148493          	addi	s1,s1,1
   11628:	000780e7          	jalr	a5
   1162c:	fc9ff06f          	j	115f4 <__libc_fini_array+0x34>

00011630 <__libc_init_array>:
   11630:	ff010113          	addi	sp,sp,-16
   11634:	00812423          	sw	s0,8(sp)
   11638:	00912223          	sw	s1,4(sp)
   1163c:	00013437          	lui	s0,0x13
   11640:	000134b7          	lui	s1,0x13
   11644:	04848793          	addi	a5,s1,72 # 13048 <__frame_dummy_init_array_entry>
   11648:	04840413          	addi	s0,s0,72 # 13048 <__frame_dummy_init_array_entry>
   1164c:	40f40433          	sub	s0,s0,a5
   11650:	01212023          	sw	s2,0(sp)
   11654:	00112623          	sw	ra,12(sp)
   11658:	40245413          	srai	s0,s0,0x2
   1165c:	04848493          	addi	s1,s1,72
   11660:	00000913          	li	s2,0
   11664:	04891263          	bne	s2,s0,116a8 <__libc_init_array+0x78>
   11668:	000134b7          	lui	s1,0x13
   1166c:	a49fe0ef          	jal	ra,100b4 <_fini>
   11670:	00013437          	lui	s0,0x13
   11674:	04848793          	addi	a5,s1,72 # 13048 <__frame_dummy_init_array_entry>
   11678:	04c40413          	addi	s0,s0,76 # 1304c <__init_array_end>
   1167c:	40f40433          	sub	s0,s0,a5
   11680:	40245413          	srai	s0,s0,0x2
   11684:	04848493          	addi	s1,s1,72
   11688:	00000913          	li	s2,0
   1168c:	02891863          	bne	s2,s0,116bc <__libc_init_array+0x8c>
   11690:	00c12083          	lw	ra,12(sp)
   11694:	00812403          	lw	s0,8(sp)
   11698:	00412483          	lw	s1,4(sp)
   1169c:	00012903          	lw	s2,0(sp)
   116a0:	01010113          	addi	sp,sp,16
   116a4:	00008067          	ret
   116a8:	0004a783          	lw	a5,0(s1)
   116ac:	00190913          	addi	s2,s2,1
   116b0:	00448493          	addi	s1,s1,4
   116b4:	000780e7          	jalr	a5
   116b8:	fadff06f          	j	11664 <__libc_init_array+0x34>
   116bc:	0004a783          	lw	a5,0(s1)
   116c0:	00190913          	addi	s2,s2,1
   116c4:	00448493          	addi	s1,s1,4
   116c8:	000780e7          	jalr	a5
   116cc:	fc1ff06f          	j	1168c <__libc_init_array+0x5c>

000116d0 <memset>:
   116d0:	00f00813          	li	a6,15
   116d4:	00050713          	mv	a4,a0
   116d8:	02c87e63          	bleu	a2,a6,11714 <memset+0x44>
   116dc:	00f77793          	andi	a5,a4,15
   116e0:	0a079063          	bnez	a5,11780 <memset+0xb0>
   116e4:	08059263          	bnez	a1,11768 <memset+0x98>
   116e8:	ff067693          	andi	a3,a2,-16
   116ec:	00f67613          	andi	a2,a2,15
   116f0:	00e686b3          	add	a3,a3,a4
   116f4:	00b72023          	sw	a1,0(a4)
   116f8:	00b72223          	sw	a1,4(a4)
   116fc:	00b72423          	sw	a1,8(a4)
   11700:	00b72623          	sw	a1,12(a4)
   11704:	01070713          	addi	a4,a4,16
   11708:	fed766e3          	bltu	a4,a3,116f4 <memset+0x24>
   1170c:	00061463          	bnez	a2,11714 <memset+0x44>
   11710:	00008067          	ret
   11714:	40c806b3          	sub	a3,a6,a2
   11718:	00269693          	slli	a3,a3,0x2
   1171c:	00000297          	auipc	t0,0x0
   11720:	005686b3          	add	a3,a3,t0
   11724:	00c68067          	jr	12(a3)
   11728:	00b70723          	sb	a1,14(a4)
   1172c:	00b706a3          	sb	a1,13(a4)
   11730:	00b70623          	sb	a1,12(a4)
   11734:	00b705a3          	sb	a1,11(a4)
   11738:	00b70523          	sb	a1,10(a4)
   1173c:	00b704a3          	sb	a1,9(a4)
   11740:	00b70423          	sb	a1,8(a4)
   11744:	00b703a3          	sb	a1,7(a4)
   11748:	00b70323          	sb	a1,6(a4)
   1174c:	00b702a3          	sb	a1,5(a4)
   11750:	00b70223          	sb	a1,4(a4)
   11754:	00b701a3          	sb	a1,3(a4)
   11758:	00b70123          	sb	a1,2(a4)
   1175c:	00b700a3          	sb	a1,1(a4)
   11760:	00b70023          	sb	a1,0(a4)
   11764:	00008067          	ret
   11768:	0ff5f593          	andi	a1,a1,255
   1176c:	00859693          	slli	a3,a1,0x8
   11770:	00d5e5b3          	or	a1,a1,a3
   11774:	01059693          	slli	a3,a1,0x10
   11778:	00d5e5b3          	or	a1,a1,a3
   1177c:	f6dff06f          	j	116e8 <memset+0x18>
   11780:	00279693          	slli	a3,a5,0x2
   11784:	00000297          	auipc	t0,0x0
   11788:	005686b3          	add	a3,a3,t0
   1178c:	00008293          	mv	t0,ra
   11790:	fa0680e7          	jalr	-96(a3)
   11794:	00028093          	mv	ra,t0
   11798:	ff078793          	addi	a5,a5,-16
   1179c:	40f70733          	sub	a4,a4,a5
   117a0:	00f60633          	add	a2,a2,a5
   117a4:	f6c878e3          	bleu	a2,a6,11714 <memset+0x44>
   117a8:	f3dff06f          	j	116e4 <memset+0x14>

000117ac <__register_exitproc>:
   117ac:	000137b7          	lui	a5,0x13
   117b0:	47c7a703          	lw	a4,1148(a5) # 1347c <_global_impure_ptr>
   117b4:	00050313          	mv	t1,a0
   117b8:	14872783          	lw	a5,328(a4)
   117bc:	00079663          	bnez	a5,117c8 <__register_exitproc+0x1c>
   117c0:	14c70793          	addi	a5,a4,332
   117c4:	14f72423          	sw	a5,328(a4)
   117c8:	0047a703          	lw	a4,4(a5)
   117cc:	01f00813          	li	a6,31
   117d0:	fff00513          	li	a0,-1
   117d4:	04e84a63          	blt	a6,a4,11828 <__register_exitproc+0x7c>
   117d8:	00271893          	slli	a7,a4,0x2
   117dc:	02030c63          	beqz	t1,11814 <__register_exitproc+0x68>
   117e0:	01178533          	add	a0,a5,a7
   117e4:	08c52423          	sw	a2,136(a0)
   117e8:	1887a803          	lw	a6,392(a5)
   117ec:	00100613          	li	a2,1
   117f0:	00e61633          	sll	a2,a2,a4
   117f4:	00c86833          	or	a6,a6,a2
   117f8:	1907a423          	sw	a6,392(a5)
   117fc:	10d52423          	sw	a3,264(a0)
   11800:	00200693          	li	a3,2
   11804:	00d31863          	bne	t1,a3,11814 <__register_exitproc+0x68>
   11808:	18c7a683          	lw	a3,396(a5)
   1180c:	00c6e633          	or	a2,a3,a2
   11810:	18c7a623          	sw	a2,396(a5)
   11814:	00170713          	addi	a4,a4,1
   11818:	00e7a223          	sw	a4,4(a5)
   1181c:	011787b3          	add	a5,a5,a7
   11820:	00b7a423          	sw	a1,8(a5)
   11824:	00000513          	li	a0,0
   11828:	00008067          	ret

0001182c <__call_exitprocs>:
   1182c:	fd010113          	addi	sp,sp,-48
   11830:	000137b7          	lui	a5,0x13
   11834:	01312e23          	sw	s3,28(sp)
   11838:	47c7a983          	lw	s3,1148(a5) # 1347c <_global_impure_ptr>
   1183c:	01412c23          	sw	s4,24(sp)
   11840:	01512a23          	sw	s5,20(sp)
   11844:	01612823          	sw	s6,16(sp)
   11848:	02112623          	sw	ra,44(sp)
   1184c:	02812423          	sw	s0,40(sp)
   11850:	02912223          	sw	s1,36(sp)
   11854:	03212023          	sw	s2,32(sp)
   11858:	01712623          	sw	s7,12(sp)
   1185c:	00050a93          	mv	s5,a0
   11860:	00058a13          	mv	s4,a1
   11864:	00100b13          	li	s6,1
   11868:	1489a483          	lw	s1,328(s3)
   1186c:	00048c63          	beqz	s1,11884 <__call_exitprocs+0x58>
   11870:	0044a403          	lw	s0,4(s1)
   11874:	fff40913          	addi	s2,s0,-1
   11878:	00241413          	slli	s0,s0,0x2
   1187c:	00848433          	add	s0,s1,s0
   11880:	02095863          	bgez	s2,118b0 <__call_exitprocs+0x84>
   11884:	02c12083          	lw	ra,44(sp)
   11888:	02812403          	lw	s0,40(sp)
   1188c:	02412483          	lw	s1,36(sp)
   11890:	02012903          	lw	s2,32(sp)
   11894:	01c12983          	lw	s3,28(sp)
   11898:	01812a03          	lw	s4,24(sp)
   1189c:	01412a83          	lw	s5,20(sp)
   118a0:	01012b03          	lw	s6,16(sp)
   118a4:	00c12b83          	lw	s7,12(sp)
   118a8:	03010113          	addi	sp,sp,48
   118ac:	00008067          	ret
   118b0:	000a0c63          	beqz	s4,118c8 <__call_exitprocs+0x9c>
   118b4:	10442783          	lw	a5,260(s0)
   118b8:	01478863          	beq	a5,s4,118c8 <__call_exitprocs+0x9c>
   118bc:	fff90913          	addi	s2,s2,-1
   118c0:	ffc40413          	addi	s0,s0,-4
   118c4:	fbdff06f          	j	11880 <__call_exitprocs+0x54>
   118c8:	0044a703          	lw	a4,4(s1)
   118cc:	00442783          	lw	a5,4(s0)
   118d0:	fff70713          	addi	a4,a4,-1
   118d4:	03271c63          	bne	a4,s2,1190c <__call_exitprocs+0xe0>
   118d8:	0124a223          	sw	s2,4(s1)
   118dc:	fe0780e3          	beqz	a5,118bc <__call_exitprocs+0x90>
   118e0:	1884a683          	lw	a3,392(s1)
   118e4:	012b1733          	sll	a4,s6,s2
   118e8:	0044ab83          	lw	s7,4(s1)
   118ec:	00d776b3          	and	a3,a4,a3
   118f0:	02069263          	bnez	a3,11914 <__call_exitprocs+0xe8>
   118f4:	000780e7          	jalr	a5
   118f8:	0044a703          	lw	a4,4(s1)
   118fc:	1489a783          	lw	a5,328(s3)
   11900:	f77714e3          	bne	a4,s7,11868 <__call_exitprocs+0x3c>
   11904:	faf48ce3          	beq	s1,a5,118bc <__call_exitprocs+0x90>
   11908:	f61ff06f          	j	11868 <__call_exitprocs+0x3c>
   1190c:	00042223          	sw	zero,4(s0)
   11910:	fcdff06f          	j	118dc <__call_exitprocs+0xb0>
   11914:	18c4a683          	lw	a3,396(s1)
   11918:	08442583          	lw	a1,132(s0)
   1191c:	00d77733          	and	a4,a4,a3
   11920:	00071863          	bnez	a4,11930 <__call_exitprocs+0x104>
   11924:	000a8513          	mv	a0,s5
   11928:	000780e7          	jalr	a5
   1192c:	fcdff06f          	j	118f8 <__call_exitprocs+0xcc>
   11930:	00058513          	mv	a0,a1
   11934:	000780e7          	jalr	a5
   11938:	fc1ff06f          	j	118f8 <__call_exitprocs+0xcc>

0001193c <conv_stat>:
   1193c:	0005a783          	lw	a5,0(a1)
   11940:	00f51023          	sh	a5,0(a0)
   11944:	0085a783          	lw	a5,8(a1)
   11948:	00f51123          	sh	a5,2(a0)
   1194c:	0105a783          	lw	a5,16(a1)
   11950:	00f52223          	sw	a5,4(a0)
   11954:	0145a783          	lw	a5,20(a1)
   11958:	00f51423          	sh	a5,8(a0)
   1195c:	0185a783          	lw	a5,24(a1)
   11960:	00f51523          	sh	a5,10(a0)
   11964:	01c5a783          	lw	a5,28(a1)
   11968:	00f51623          	sh	a5,12(a0)
   1196c:	0205a783          	lw	a5,32(a1)
   11970:	00f51723          	sh	a5,14(a0)
   11974:	0305a783          	lw	a5,48(a1)
   11978:	00f52823          	sw	a5,16(a0)
   1197c:	0405a783          	lw	a5,64(a1)
   11980:	02f52823          	sw	a5,48(a0)
   11984:	0385a783          	lw	a5,56(a1)
   11988:	02f52623          	sw	a5,44(a0)
   1198c:	0485a783          	lw	a5,72(a1)
   11990:	00f52a23          	sw	a5,20(a0)
   11994:	0505a783          	lw	a5,80(a1)
   11998:	00f52e23          	sw	a5,28(a0)
   1199c:	0585a783          	lw	a5,88(a1)
   119a0:	02f52223          	sw	a5,36(a0)
   119a4:	00008067          	ret

000119a8 <__syscall_error>:
   119a8:	ff010113          	addi	sp,sp,-16
   119ac:	00812423          	sw	s0,8(sp)
   119b0:	00112623          	sw	ra,12(sp)
   119b4:	00050413          	mv	s0,a0
   119b8:	4f0000ef          	jal	ra,11ea8 <__errno>
   119bc:	408007b3          	neg	a5,s0
   119c0:	00c12083          	lw	ra,12(sp)
   119c4:	00812403          	lw	s0,8(sp)
   119c8:	00f52023          	sw	a5,0(a0)
   119cc:	fff00513          	li	a0,-1
   119d0:	01010113          	addi	sp,sp,16
   119d4:	00008067          	ret

000119d8 <__internal_syscall>:
   119d8:	00050893          	mv	a7,a0
   119dc:	00058513          	mv	a0,a1
   119e0:	00060593          	mv	a1,a2
   119e4:	00068613          	mv	a2,a3
   119e8:	00070693          	mv	a3,a4
   119ec:	00000073          	ecall
   119f0:	00055463          	bgez	a0,119f8 <__internal_syscall+0x20>
   119f4:	fb5ff06f          	j	119a8 <__syscall_error>
   119f8:	00008067          	ret

000119fc <open>:
   119fc:	00060693          	mv	a3,a2
   11a00:	00000713          	li	a4,0
   11a04:	00058613          	mv	a2,a1
   11a08:	00050593          	mv	a1,a0
   11a0c:	40000513          	li	a0,1024
   11a10:	fc9ff06f          	j	119d8 <__internal_syscall>

00011a14 <openat>:
   11a14:	00068713          	mv	a4,a3
   11a18:	00060693          	mv	a3,a2
   11a1c:	00058613          	mv	a2,a1
   11a20:	00050593          	mv	a1,a0
   11a24:	03800513          	li	a0,56
   11a28:	fb1ff06f          	j	119d8 <__internal_syscall>

00011a2c <lseek>:
   11a2c:	00060693          	mv	a3,a2
   11a30:	00000713          	li	a4,0
   11a34:	00058613          	mv	a2,a1
   11a38:	00050593          	mv	a1,a0
   11a3c:	03e00513          	li	a0,62
   11a40:	f99ff06f          	j	119d8 <__internal_syscall>

00011a44 <read>:
   11a44:	00060693          	mv	a3,a2
   11a48:	00000713          	li	a4,0
   11a4c:	00058613          	mv	a2,a1
   11a50:	00050593          	mv	a1,a0
   11a54:	03f00513          	li	a0,63
   11a58:	f81ff06f          	j	119d8 <__internal_syscall>

00011a5c <write>:
   11a5c:	00060693          	mv	a3,a2
   11a60:	00000713          	li	a4,0
   11a64:	00058613          	mv	a2,a1
   11a68:	00050593          	mv	a1,a0
   11a6c:	04000513          	li	a0,64
   11a70:	f69ff06f          	j	119d8 <__internal_syscall>

00011a74 <fstat>:
   11a74:	f8010113          	addi	sp,sp,-128
   11a78:	06912a23          	sw	s1,116(sp)
   11a7c:	00810613          	addi	a2,sp,8
   11a80:	00058493          	mv	s1,a1
   11a84:	00000713          	li	a4,0
   11a88:	00050593          	mv	a1,a0
   11a8c:	00000693          	li	a3,0
   11a90:	05000513          	li	a0,80
   11a94:	06112e23          	sw	ra,124(sp)
   11a98:	06812c23          	sw	s0,120(sp)
   11a9c:	f3dff0ef          	jal	ra,119d8 <__internal_syscall>
   11aa0:	00050413          	mv	s0,a0
   11aa4:	00810593          	addi	a1,sp,8
   11aa8:	00048513          	mv	a0,s1
   11aac:	e91ff0ef          	jal	ra,1193c <conv_stat>
   11ab0:	00040513          	mv	a0,s0
   11ab4:	07c12083          	lw	ra,124(sp)
   11ab8:	07812403          	lw	s0,120(sp)
   11abc:	07412483          	lw	s1,116(sp)
   11ac0:	08010113          	addi	sp,sp,128
   11ac4:	00008067          	ret

00011ac8 <stat>:
   11ac8:	f8010113          	addi	sp,sp,-128
   11acc:	06912a23          	sw	s1,116(sp)
   11ad0:	00810613          	addi	a2,sp,8
   11ad4:	00058493          	mv	s1,a1
   11ad8:	00000713          	li	a4,0
   11adc:	00050593          	mv	a1,a0
   11ae0:	00000693          	li	a3,0
   11ae4:	40e00513          	li	a0,1038
   11ae8:	06112e23          	sw	ra,124(sp)
   11aec:	06812c23          	sw	s0,120(sp)
   11af0:	ee9ff0ef          	jal	ra,119d8 <__internal_syscall>
   11af4:	00050413          	mv	s0,a0
   11af8:	00810593          	addi	a1,sp,8
   11afc:	00048513          	mv	a0,s1
   11b00:	e3dff0ef          	jal	ra,1193c <conv_stat>
   11b04:	00040513          	mv	a0,s0
   11b08:	07c12083          	lw	ra,124(sp)
   11b0c:	07812403          	lw	s0,120(sp)
   11b10:	07412483          	lw	s1,116(sp)
   11b14:	08010113          	addi	sp,sp,128
   11b18:	00008067          	ret

00011b1c <lstat>:
   11b1c:	f8010113          	addi	sp,sp,-128
   11b20:	06912a23          	sw	s1,116(sp)
   11b24:	00810613          	addi	a2,sp,8
   11b28:	00058493          	mv	s1,a1
   11b2c:	00000713          	li	a4,0
   11b30:	00050593          	mv	a1,a0
   11b34:	00000693          	li	a3,0
   11b38:	40f00513          	li	a0,1039
   11b3c:	06112e23          	sw	ra,124(sp)
   11b40:	06812c23          	sw	s0,120(sp)
   11b44:	e95ff0ef          	jal	ra,119d8 <__internal_syscall>
   11b48:	00050413          	mv	s0,a0
   11b4c:	00810593          	addi	a1,sp,8
   11b50:	00048513          	mv	a0,s1
   11b54:	de9ff0ef          	jal	ra,1193c <conv_stat>
   11b58:	00040513          	mv	a0,s0
   11b5c:	07c12083          	lw	ra,124(sp)
   11b60:	07812403          	lw	s0,120(sp)
   11b64:	07412483          	lw	s1,116(sp)
   11b68:	08010113          	addi	sp,sp,128
   11b6c:	00008067          	ret

00011b70 <fstatat>:
   11b70:	f8010113          	addi	sp,sp,-128
   11b74:	06912a23          	sw	s1,116(sp)
   11b78:	00068713          	mv	a4,a3
   11b7c:	00060493          	mv	s1,a2
   11b80:	00810693          	addi	a3,sp,8
   11b84:	00058613          	mv	a2,a1
   11b88:	00050593          	mv	a1,a0
   11b8c:	04f00513          	li	a0,79
   11b90:	06112e23          	sw	ra,124(sp)
   11b94:	06812c23          	sw	s0,120(sp)
   11b98:	e41ff0ef          	jal	ra,119d8 <__internal_syscall>
   11b9c:	00050413          	mv	s0,a0
   11ba0:	00810593          	addi	a1,sp,8
   11ba4:	00048513          	mv	a0,s1
   11ba8:	d95ff0ef          	jal	ra,1193c <conv_stat>
   11bac:	00040513          	mv	a0,s0
   11bb0:	07c12083          	lw	ra,124(sp)
   11bb4:	07812403          	lw	s0,120(sp)
   11bb8:	07412483          	lw	s1,116(sp)
   11bbc:	08010113          	addi	sp,sp,128
   11bc0:	00008067          	ret

00011bc4 <access>:
   11bc4:	00058613          	mv	a2,a1
   11bc8:	00000713          	li	a4,0
   11bcc:	00050593          	mv	a1,a0
   11bd0:	00000693          	li	a3,0
   11bd4:	40900513          	li	a0,1033
   11bd8:	e01ff06f          	j	119d8 <__internal_syscall>

00011bdc <faccessat>:
   11bdc:	00068713          	mv	a4,a3
   11be0:	00060693          	mv	a3,a2
   11be4:	00058613          	mv	a2,a1
   11be8:	00050593          	mv	a1,a0
   11bec:	03000513          	li	a0,48
   11bf0:	de9ff06f          	j	119d8 <__internal_syscall>

00011bf4 <close>:
   11bf4:	00050593          	mv	a1,a0
   11bf8:	00000713          	li	a4,0
   11bfc:	00000693          	li	a3,0
   11c00:	00000613          	li	a2,0
   11c04:	03900513          	li	a0,57
   11c08:	dd1ff06f          	j	119d8 <__internal_syscall>

00011c0c <link>:
   11c0c:	00058613          	mv	a2,a1
   11c10:	00000713          	li	a4,0
   11c14:	00050593          	mv	a1,a0
   11c18:	00000693          	li	a3,0
   11c1c:	40100513          	li	a0,1025
   11c20:	db9ff06f          	j	119d8 <__internal_syscall>

00011c24 <unlink>:
   11c24:	00050593          	mv	a1,a0
   11c28:	00000713          	li	a4,0
   11c2c:	00000693          	li	a3,0
   11c30:	00000613          	li	a2,0
   11c34:	40200513          	li	a0,1026
   11c38:	da1ff06f          	j	119d8 <__internal_syscall>

00011c3c <execve>:
   11c3c:	ff010113          	addi	sp,sp,-16
   11c40:	00112623          	sw	ra,12(sp)
   11c44:	264000ef          	jal	ra,11ea8 <__errno>
   11c48:	00c12083          	lw	ra,12(sp)
   11c4c:	00c00793          	li	a5,12
   11c50:	00f52023          	sw	a5,0(a0)
   11c54:	fff00513          	li	a0,-1
   11c58:	01010113          	addi	sp,sp,16
   11c5c:	00008067          	ret

00011c60 <fork>:
   11c60:	ff010113          	addi	sp,sp,-16
   11c64:	00112623          	sw	ra,12(sp)
   11c68:	240000ef          	jal	ra,11ea8 <__errno>
   11c6c:	00c12083          	lw	ra,12(sp)
   11c70:	00b00793          	li	a5,11
   11c74:	00f52023          	sw	a5,0(a0)
   11c78:	fff00513          	li	a0,-1
   11c7c:	01010113          	addi	sp,sp,16
   11c80:	00008067          	ret

00011c84 <getpid>:
   11c84:	00100513          	li	a0,1
   11c88:	00008067          	ret

00011c8c <kill>:
   11c8c:	ff010113          	addi	sp,sp,-16
   11c90:	00112623          	sw	ra,12(sp)
   11c94:	214000ef          	jal	ra,11ea8 <__errno>
   11c98:	00c12083          	lw	ra,12(sp)
   11c9c:	01600793          	li	a5,22
   11ca0:	00f52023          	sw	a5,0(a0)
   11ca4:	fff00513          	li	a0,-1
   11ca8:	01010113          	addi	sp,sp,16
   11cac:	00008067          	ret

00011cb0 <wait>:
   11cb0:	ff010113          	addi	sp,sp,-16
   11cb4:	00112623          	sw	ra,12(sp)
   11cb8:	1f0000ef          	jal	ra,11ea8 <__errno>
   11cbc:	00c12083          	lw	ra,12(sp)
   11cc0:	00a00793          	li	a5,10
   11cc4:	00f52023          	sw	a5,0(a0)
   11cc8:	fff00513          	li	a0,-1
   11ccc:	01010113          	addi	sp,sp,16
   11cd0:	00008067          	ret

00011cd4 <isatty>:
   11cd4:	fb010113          	addi	sp,sp,-80
   11cd8:	00410593          	addi	a1,sp,4
   11cdc:	04112623          	sw	ra,76(sp)
   11ce0:	d95ff0ef          	jal	ra,11a74 <fstat>
   11ce4:	fff00793          	li	a5,-1
   11ce8:	00f50863          	beq	a0,a5,11cf8 <isatty+0x24>
   11cec:	00812503          	lw	a0,8(sp)
   11cf0:	00d55513          	srli	a0,a0,0xd
   11cf4:	00157513          	andi	a0,a0,1
   11cf8:	04c12083          	lw	ra,76(sp)
   11cfc:	05010113          	addi	sp,sp,80
   11d00:	00008067          	ret

00011d04 <gettimeofday>:
   11d04:	00050593          	mv	a1,a0
   11d08:	00000713          	li	a4,0
   11d0c:	00000693          	li	a3,0
   11d10:	00000613          	li	a2,0
   11d14:	0a900513          	li	a0,169
   11d18:	cc1ff06f          	j	119d8 <__internal_syscall>

00011d1c <times>:
   11d1c:	fe010113          	addi	sp,sp,-32
   11d20:	00812c23          	sw	s0,24(sp)
   11d24:	8101a783          	lw	a5,-2032(gp) # 13488 <t0.2538>
   11d28:	00912a23          	sw	s1,20(sp)
   11d2c:	00112e23          	sw	ra,28(sp)
   11d30:	00050493          	mv	s1,a0
   11d34:	00079863          	bnez	a5,11d44 <times+0x28>
   11d38:	00000593          	li	a1,0
   11d3c:	81018513          	addi	a0,gp,-2032 # 13488 <t0.2538>
   11d40:	fc5ff0ef          	jal	ra,11d04 <gettimeofday>
   11d44:	00000593          	li	a1,0
   11d48:	00810513          	addi	a0,sp,8
   11d4c:	fb9ff0ef          	jal	ra,11d04 <gettimeofday>
   11d50:	8101a783          	lw	a5,-2032(gp) # 13488 <t0.2538>
   11d54:	00812503          	lw	a0,8(sp)
   11d58:	000f45b7          	lui	a1,0xf4
   11d5c:	24058593          	addi	a1,a1,576 # f4240 <__global_pointer$+0xe05c8>
   11d60:	40f50533          	sub	a0,a0,a5
   11d64:	ef0ff0ef          	jal	ra,11454 <__mulsi3>
   11d68:	81018413          	addi	s0,gp,-2032 # 13488 <t0.2538>
   11d6c:	00442703          	lw	a4,4(s0)
   11d70:	00c12783          	lw	a5,12(sp)
   11d74:	01c12083          	lw	ra,28(sp)
   11d78:	01812403          	lw	s0,24(sp)
   11d7c:	40e787b3          	sub	a5,a5,a4
   11d80:	00f50533          	add	a0,a0,a5
   11d84:	00a4a023          	sw	a0,0(s1)
   11d88:	0004a423          	sw	zero,8(s1)
   11d8c:	0004a623          	sw	zero,12(s1)
   11d90:	0004a223          	sw	zero,4(s1)
   11d94:	fff00513          	li	a0,-1
   11d98:	01412483          	lw	s1,20(sp)
   11d9c:	02010113          	addi	sp,sp,32
   11da0:	00008067          	ret

00011da4 <ftime>:
   11da4:	00051223          	sh	zero,4(a0)
   11da8:	00052023          	sw	zero,0(a0)
   11dac:	00000513          	li	a0,0
   11db0:	00008067          	ret

00011db4 <utime>:
   11db4:	fff00513          	li	a0,-1
   11db8:	00008067          	ret

00011dbc <chown>:
   11dbc:	fff00513          	li	a0,-1
   11dc0:	00008067          	ret

00011dc4 <chmod>:
   11dc4:	fff00513          	li	a0,-1
   11dc8:	00008067          	ret

00011dcc <chdir>:
   11dcc:	fff00513          	li	a0,-1
   11dd0:	00008067          	ret

00011dd4 <getcwd>:
   11dd4:	00000513          	li	a0,0
   11dd8:	00008067          	ret

00011ddc <sysconf>:
   11ddc:	00200793          	li	a5,2
   11de0:	00f50663          	beq	a0,a5,11dec <sysconf+0x10>
   11de4:	fff00513          	li	a0,-1
   11de8:	00008067          	ret
   11dec:	000f4537          	lui	a0,0xf4
   11df0:	24050513          	addi	a0,a0,576 # f4240 <__global_pointer$+0xe05c8>
   11df4:	00008067          	ret

00011df8 <sbrk>:
   11df8:	ff010113          	addi	sp,sp,-16
   11dfc:	00812423          	sw	s0,8(sp)
   11e00:	80c1a783          	lw	a5,-2036(gp) # 13484 <_edata>
   11e04:	00912223          	sw	s1,4(sp)
   11e08:	00112623          	sw	ra,12(sp)
   11e0c:	00050493          	mv	s1,a0
   11e10:	04079063          	bnez	a5,11e50 <sbrk+0x58>
   11e14:	00000713          	li	a4,0
   11e18:	00000693          	li	a3,0
   11e1c:	00000613          	li	a2,0
   11e20:	00000593          	li	a1,0
   11e24:	0d600513          	li	a0,214
   11e28:	bb1ff0ef          	jal	ra,119d8 <__internal_syscall>
   11e2c:	fff00793          	li	a5,-1
   11e30:	00f51e63          	bne	a0,a5,11e4c <sbrk+0x54>
   11e34:	fff00513          	li	a0,-1
   11e38:	00c12083          	lw	ra,12(sp)
   11e3c:	00812403          	lw	s0,8(sp)
   11e40:	00412483          	lw	s1,4(sp)
   11e44:	01010113          	addi	sp,sp,16
   11e48:	00008067          	ret
   11e4c:	80a1a623          	sw	a0,-2036(gp) # 13484 <_edata>
   11e50:	80c1a583          	lw	a1,-2036(gp) # 13484 <_edata>
   11e54:	00000713          	li	a4,0
   11e58:	00000693          	li	a3,0
   11e5c:	00b485b3          	add	a1,s1,a1
   11e60:	00000613          	li	a2,0
   11e64:	0d600513          	li	a0,214
   11e68:	b71ff0ef          	jal	ra,119d8 <__internal_syscall>
   11e6c:	80c1a783          	lw	a5,-2036(gp) # 13484 <_edata>
   11e70:	00f484b3          	add	s1,s1,a5
   11e74:	fc9510e3          	bne	a0,s1,11e34 <sbrk+0x3c>
   11e78:	80a1a623          	sw	a0,-2036(gp) # 13484 <_edata>
   11e7c:	00078513          	mv	a0,a5
   11e80:	fb9ff06f          	j	11e38 <sbrk+0x40>

00011e84 <_exit>:
   11e84:	ff010113          	addi	sp,sp,-16
   11e88:	00050593          	mv	a1,a0
   11e8c:	00000713          	li	a4,0
   11e90:	00000693          	li	a3,0
   11e94:	00000613          	li	a2,0
   11e98:	05d00513          	li	a0,93
   11e9c:	00112623          	sw	ra,12(sp)
   11ea0:	b39ff0ef          	jal	ra,119d8 <__internal_syscall>
   11ea4:	0000006f          	j	11ea4 <_exit+0x20>

00011ea8 <__errno>:
   11ea8:	8081a503          	lw	a0,-2040(gp) # 13480 <_impure_ptr>
   11eac:	00008067          	ret
