
program:     formato del fichero elf32-littleriscv


Desensamblado de la sección .text:

00000200 <main>:
     200:	fd010113          	addi	sp,sp,-48
     204:	02112623          	sw	ra,44(sp)
     208:	02812423          	sw	s0,40(sp)
     20c:	03010413          	addi	s0,sp,48
     210:	00200593          	li	a1,2
     214:	00100513          	li	a0,1
     218:	0cc000ef          	jal	ra,2e4 <SumInt>
     21c:	fea42623          	sw	a0,-20(s0)
     220:	00300593          	li	a1,3
     224:	00200513          	li	a0,2
     228:	194000ef          	jal	ra,3bc <MultInt>
     22c:	fea42423          	sw	a0,-24(s0)
     230:	00200593          	li	a1,2
     234:	00500513          	li	a0,5
     238:	118000ef          	jal	ra,350 <SubInt>
     23c:	fea42223          	sw	a0,-28(s0)
     240:	00300593          	li	a1,3
     244:	00300513          	li	a0,3
     248:	1ec000ef          	jal	ra,434 <DivInt>
     24c:	fea42023          	sw	a0,-32(s0)
     250:	000017b7          	lui	a5,0x1
     254:	59c7a703          	lw	a4,1436(a5) # 159c <__clzsi2+0x4c>
     258:	000017b7          	lui	a5,0x1
     25c:	5a07a783          	lw	a5,1440(a5) # 15a0 <__clzsi2+0x50>
     260:	00070593          	mv	a1,a4
     264:	00078513          	mv	a0,a5
     268:	0ac000ef          	jal	ra,314 <SumFloat>
     26c:	fca42e23          	sw	a0,-36(s0)
     270:	000017b7          	lui	a5,0x1
     274:	5a47a703          	lw	a4,1444(a5) # 15a4 <__clzsi2+0x54>
     278:	000017b7          	lui	a5,0x1
     27c:	5a87a783          	lw	a5,1448(a5) # 15a8 <__clzsi2+0x58>
     280:	00070593          	mv	a1,a4
     284:	00078513          	mv	a0,a5
     288:	0f8000ef          	jal	ra,380 <SubFloat>
     28c:	fca42c23          	sw	a0,-40(s0)
     290:	000017b7          	lui	a5,0x1
     294:	5ac7a703          	lw	a4,1452(a5) # 15ac <__clzsi2+0x5c>
     298:	000017b7          	lui	a5,0x1
     29c:	5b07a783          	lw	a5,1456(a5) # 15b0 <__clzsi2+0x60>
     2a0:	00070593          	mv	a1,a4
     2a4:	00078513          	mv	a0,a5
     2a8:	150000ef          	jal	ra,3f8 <MultFloat>
     2ac:	fca42a23          	sw	a0,-44(s0)
     2b0:	000017b7          	lui	a5,0x1
     2b4:	5b47a703          	lw	a4,1460(a5) # 15b4 <__clzsi2+0x64>
     2b8:	000017b7          	lui	a5,0x1
     2bc:	5a47a783          	lw	a5,1444(a5) # 15a4 <__clzsi2+0x54>
     2c0:	00070593          	mv	a1,a4
     2c4:	00078513          	mv	a0,a5
     2c8:	1a8000ef          	jal	ra,470 <DivFloat>
     2cc:	fca42823          	sw	a0,-48(s0)
     2d0:	00000013          	nop
     2d4:	02c12083          	lw	ra,44(sp)
     2d8:	02812403          	lw	s0,40(sp)
     2dc:	03010113          	addi	sp,sp,48
     2e0:	00008067          	ret

000002e4 <SumInt>:
     2e4:	fe010113          	addi	sp,sp,-32
     2e8:	00812e23          	sw	s0,28(sp)
     2ec:	02010413          	addi	s0,sp,32
     2f0:	fea42623          	sw	a0,-20(s0)
     2f4:	feb42423          	sw	a1,-24(s0)
     2f8:	fec42703          	lw	a4,-20(s0)
     2fc:	fe842783          	lw	a5,-24(s0)
     300:	00f707b3          	add	a5,a4,a5
     304:	00078513          	mv	a0,a5
     308:	01c12403          	lw	s0,28(sp)
     30c:	02010113          	addi	sp,sp,32
     310:	00008067          	ret

00000314 <SumFloat>:
     314:	fe010113          	addi	sp,sp,-32
     318:	00112e23          	sw	ra,28(sp)
     31c:	00812c23          	sw	s0,24(sp)
     320:	02010413          	addi	s0,sp,32
     324:	fea42623          	sw	a0,-20(s0)
     328:	feb42423          	sw	a1,-24(s0)
     32c:	fe842583          	lw	a1,-24(s0)
     330:	fec42503          	lw	a0,-20(s0)
     334:	178000ef          	jal	ra,4ac <__addsf3>
     338:	00050793          	mv	a5,a0
     33c:	00078513          	mv	a0,a5
     340:	01c12083          	lw	ra,28(sp)
     344:	01812403          	lw	s0,24(sp)
     348:	02010113          	addi	sp,sp,32
     34c:	00008067          	ret

00000350 <SubInt>:
     350:	fe010113          	addi	sp,sp,-32
     354:	00812e23          	sw	s0,28(sp)
     358:	02010413          	addi	s0,sp,32
     35c:	fea42623          	sw	a0,-20(s0)
     360:	feb42423          	sw	a1,-24(s0)
     364:	fec42703          	lw	a4,-20(s0)
     368:	fe842783          	lw	a5,-24(s0)
     36c:	40f707b3          	sub	a5,a4,a5
     370:	00078513          	mv	a0,a5
     374:	01c12403          	lw	s0,28(sp)
     378:	02010113          	addi	sp,sp,32
     37c:	00008067          	ret

00000380 <SubFloat>:
     380:	fe010113          	addi	sp,sp,-32
     384:	00112e23          	sw	ra,28(sp)
     388:	00812c23          	sw	s0,24(sp)
     38c:	02010413          	addi	s0,sp,32
     390:	fea42623          	sw	a0,-20(s0)
     394:	feb42423          	sw	a1,-24(s0)
     398:	fe842583          	lw	a1,-24(s0)
     39c:	fec42503          	lw	a0,-20(s0)
     3a0:	461000ef          	jal	ra,1000 <__subsf3>
     3a4:	00050793          	mv	a5,a0
     3a8:	00078513          	mv	a0,a5
     3ac:	01c12083          	lw	ra,28(sp)
     3b0:	01812403          	lw	s0,24(sp)
     3b4:	02010113          	addi	sp,sp,32
     3b8:	00008067          	ret

000003bc <MultInt>:
     3bc:	fe010113          	addi	sp,sp,-32
     3c0:	00112e23          	sw	ra,28(sp)
     3c4:	00812c23          	sw	s0,24(sp)
     3c8:	02010413          	addi	s0,sp,32
     3cc:	fea42623          	sw	a0,-20(s0)
     3d0:	feb42423          	sw	a1,-24(s0)
     3d4:	fe842583          	lw	a1,-24(s0)
     3d8:	fec42503          	lw	a0,-20(s0)
     3dc:	09c010ef          	jal	ra,1478 <__mulsi3>
     3e0:	00050793          	mv	a5,a0
     3e4:	00078513          	mv	a0,a5
     3e8:	01c12083          	lw	ra,28(sp)
     3ec:	01812403          	lw	s0,24(sp)
     3f0:	02010113          	addi	sp,sp,32
     3f4:	00008067          	ret

000003f8 <MultFloat>:
     3f8:	fe010113          	addi	sp,sp,-32
     3fc:	00112e23          	sw	ra,28(sp)
     400:	00812c23          	sw	s0,24(sp)
     404:	02010413          	addi	s0,sp,32
     408:	fea42623          	sw	a0,-20(s0)
     40c:	feb42423          	sw	a1,-24(s0)
     410:	fe842583          	lw	a1,-24(s0)
     414:	fec42503          	lw	a0,-20(s0)
     418:	07d000ef          	jal	ra,c94 <__mulsf3>
     41c:	00050793          	mv	a5,a0
     420:	00078513          	mv	a0,a5
     424:	01c12083          	lw	ra,28(sp)
     428:	01812403          	lw	s0,24(sp)
     42c:	02010113          	addi	sp,sp,32
     430:	00008067          	ret

00000434 <DivInt>:
     434:	fe010113          	addi	sp,sp,-32
     438:	00112e23          	sw	ra,28(sp)
     43c:	00812c23          	sw	s0,24(sp)
     440:	02010413          	addi	s0,sp,32
     444:	fea42623          	sw	a0,-20(s0)
     448:	feb42423          	sw	a1,-24(s0)
     44c:	fe842583          	lw	a1,-24(s0)
     450:	fec42503          	lw	a0,-20(s0)
     454:	048010ef          	jal	ra,149c <__divsi3>
     458:	00050793          	mv	a5,a0
     45c:	00078513          	mv	a0,a5
     460:	01c12083          	lw	ra,28(sp)
     464:	01812403          	lw	s0,24(sp)
     468:	02010113          	addi	sp,sp,32
     46c:	00008067          	ret

00000470 <DivFloat>:
     470:	fe010113          	addi	sp,sp,-32
     474:	00112e23          	sw	ra,28(sp)
     478:	00812c23          	sw	s0,24(sp)
     47c:	02010413          	addi	s0,sp,32
     480:	fea42623          	sw	a0,-20(s0)
     484:	feb42423          	sw	a1,-24(s0)
     488:	fe842583          	lw	a1,-24(s0)
     48c:	fec42503          	lw	a0,-20(s0)
     490:	470000ef          	jal	ra,900 <__divsf3>
     494:	00050793          	mv	a5,a0
     498:	00078513          	mv	a0,a5
     49c:	01c12083          	lw	ra,28(sp)
     4a0:	01812403          	lw	s0,24(sp)
     4a4:	02010113          	addi	sp,sp,32
     4a8:	00008067          	ret

000004ac <__addsf3>:
     4ac:	008007b7          	lui	a5,0x800
     4b0:	ff010113          	addi	sp,sp,-16
     4b4:	fff78793          	addi	a5,a5,-1 # 7fffff <_end+0x7fe8cf>
     4b8:	00a7f733          	and	a4,a5,a0
     4bc:	00812423          	sw	s0,8(sp)
     4c0:	01212023          	sw	s2,0(sp)
     4c4:	01755413          	srli	s0,a0,0x17
     4c8:	01f55913          	srli	s2,a0,0x1f
     4cc:	0175d513          	srli	a0,a1,0x17
     4d0:	00b7f7b3          	and	a5,a5,a1
     4d4:	0ff47413          	andi	s0,s0,255
     4d8:	0ff57513          	andi	a0,a0,255
     4dc:	00112623          	sw	ra,12(sp)
     4e0:	00912223          	sw	s1,4(sp)
     4e4:	01f5d593          	srli	a1,a1,0x1f
     4e8:	00371613          	slli	a2,a4,0x3
     4ec:	00379793          	slli	a5,a5,0x3
     4f0:	40a40733          	sub	a4,s0,a0
     4f4:	18b91e63          	bne	s2,a1,690 <__addsf3+0x1e4>
     4f8:	0ae05863          	blez	a4,5a8 <__addsf3+0xfc>
     4fc:	06051863          	bnez	a0,56c <__addsf3+0xc0>
     500:	00079c63          	bnez	a5,518 <__addsf3+0x6c>
     504:	0ff00793          	li	a5,255
     508:	04f40c63          	beq	s0,a5,560 <__addsf3+0xb4>
     50c:	00060793          	mv	a5,a2
     510:	00040513          	mv	a0,s0
     514:	0bc0006f          	j	5d0 <__addsf3+0x124>
     518:	fff70713          	addi	a4,a4,-1
     51c:	02071e63          	bnez	a4,558 <__addsf3+0xac>
     520:	00c787b3          	add	a5,a5,a2
     524:	00040513          	mv	a0,s0
     528:	00579713          	slli	a4,a5,0x5
     52c:	0a075263          	bgez	a4,5d0 <__addsf3+0x124>
     530:	00150513          	addi	a0,a0,1
     534:	0ff00713          	li	a4,255
     538:	32e50463          	beq	a0,a4,860 <__addsf3+0x3b4>
     53c:	7e000737          	lui	a4,0x7e000
     540:	0017f693          	andi	a3,a5,1
     544:	fff70713          	addi	a4,a4,-1 # 7dffffff <_end+0x7dffe8cf>
     548:	0017d793          	srli	a5,a5,0x1
     54c:	00e7f7b3          	and	a5,a5,a4
     550:	00d7e7b3          	or	a5,a5,a3
     554:	07c0006f          	j	5d0 <__addsf3+0x124>
     558:	0ff00693          	li	a3,255
     55c:	02d41063          	bne	s0,a3,57c <__addsf3+0xd0>
     560:	00060793          	mv	a5,a2
     564:	0ff00513          	li	a0,255
     568:	0680006f          	j	5d0 <__addsf3+0x124>
     56c:	0ff00693          	li	a3,255
     570:	fed408e3          	beq	s0,a3,560 <__addsf3+0xb4>
     574:	040006b7          	lui	a3,0x4000
     578:	00d7e7b3          	or	a5,a5,a3
     57c:	01b00693          	li	a3,27
     580:	00e6d663          	ble	a4,a3,58c <__addsf3+0xe0>
     584:	00100793          	li	a5,1
     588:	f99ff06f          	j	520 <__addsf3+0x74>
     58c:	02000693          	li	a3,32
     590:	40e686b3          	sub	a3,a3,a4
     594:	00e7d5b3          	srl	a1,a5,a4
     598:	00d797b3          	sll	a5,a5,a3
     59c:	00f037b3          	snez	a5,a5
     5a0:	00f5e7b3          	or	a5,a1,a5
     5a4:	f7dff06f          	j	520 <__addsf3+0x74>
     5a8:	08070463          	beqz	a4,630 <__addsf3+0x184>
     5ac:	04041063          	bnez	s0,5ec <__addsf3+0x140>
     5b0:	02060063          	beqz	a2,5d0 <__addsf3+0x124>
     5b4:	fff00693          	li	a3,-1
     5b8:	00d71663          	bne	a4,a3,5c4 <__addsf3+0x118>
     5bc:	00c787b3          	add	a5,a5,a2
     5c0:	f69ff06f          	j	528 <__addsf3+0x7c>
     5c4:	0ff00693          	li	a3,255
     5c8:	fff74713          	not	a4,a4
     5cc:	02d51a63          	bne	a0,a3,600 <__addsf3+0x154>
     5d0:	0077f713          	andi	a4,a5,7
     5d4:	28070863          	beqz	a4,864 <__addsf3+0x3b8>
     5d8:	00f7f713          	andi	a4,a5,15
     5dc:	00400693          	li	a3,4
     5e0:	28d70263          	beq	a4,a3,864 <__addsf3+0x3b8>
     5e4:	00478793          	addi	a5,a5,4
     5e8:	27c0006f          	j	864 <__addsf3+0x3b8>
     5ec:	0ff00693          	li	a3,255
     5f0:	fed500e3          	beq	a0,a3,5d0 <__addsf3+0x124>
     5f4:	040006b7          	lui	a3,0x4000
     5f8:	40e00733          	neg	a4,a4
     5fc:	00d66633          	or	a2,a2,a3
     600:	01b00693          	li	a3,27
     604:	00e6d663          	ble	a4,a3,610 <__addsf3+0x164>
     608:	00100713          	li	a4,1
     60c:	01c0006f          	j	628 <__addsf3+0x17c>
     610:	02000693          	li	a3,32
     614:	00e655b3          	srl	a1,a2,a4
     618:	40e68733          	sub	a4,a3,a4
     61c:	00e61733          	sll	a4,a2,a4
     620:	00e03733          	snez	a4,a4
     624:	00e5e733          	or	a4,a1,a4
     628:	00e787b3          	add	a5,a5,a4
     62c:	efdff06f          	j	528 <__addsf3+0x7c>
     630:	00140513          	addi	a0,s0,1
     634:	0ff57693          	andi	a3,a0,255
     638:	00100713          	li	a4,1
     63c:	04d74063          	blt	a4,a3,67c <__addsf3+0x1d0>
     640:	02041863          	bnez	s0,670 <__addsf3+0x1c4>
     644:	00000513          	li	a0,0
     648:	f80604e3          	beqz	a2,5d0 <__addsf3+0x124>
     64c:	20078663          	beqz	a5,858 <__addsf3+0x3ac>
     650:	00c787b3          	add	a5,a5,a2
     654:	00579713          	slli	a4,a5,0x5
     658:	f6075ce3          	bgez	a4,5d0 <__addsf3+0x124>
     65c:	fc000737          	lui	a4,0xfc000
     660:	fff70713          	addi	a4,a4,-1 # fbffffff <_end+0xfbffe8cf>
     664:	00e7f7b3          	and	a5,a5,a4
     668:	00100513          	li	a0,1
     66c:	f65ff06f          	j	5d0 <__addsf3+0x124>
     670:	ee060ae3          	beqz	a2,564 <__addsf3+0xb8>
     674:	16079463          	bnez	a5,7dc <__addsf3+0x330>
     678:	ee9ff06f          	j	560 <__addsf3+0xb4>
     67c:	0ff00713          	li	a4,255
     680:	1ee50063          	beq	a0,a4,860 <__addsf3+0x3b4>
     684:	00f60733          	add	a4,a2,a5
     688:	00175793          	srli	a5,a4,0x1
     68c:	f45ff06f          	j	5d0 <__addsf3+0x124>
     690:	08e05063          	blez	a4,710 <__addsf3+0x264>
     694:	04051663          	bnez	a0,6e0 <__addsf3+0x234>
     698:	e60786e3          	beqz	a5,504 <__addsf3+0x58>
     69c:	fff70713          	addi	a4,a4,-1
     6a0:	02071463          	bnez	a4,6c8 <__addsf3+0x21c>
     6a4:	40f607b3          	sub	a5,a2,a5
     6a8:	00040513          	mv	a0,s0
     6ac:	00579713          	slli	a4,a5,0x5
     6b0:	f20750e3          	bgez	a4,5d0 <__addsf3+0x124>
     6b4:	040004b7          	lui	s1,0x4000
     6b8:	fff48493          	addi	s1,s1,-1 # 3ffffff <_end+0x3ffe8cf>
     6bc:	0097f4b3          	and	s1,a5,s1
     6c0:	00050413          	mv	s0,a0
     6c4:	13c0006f          	j	800 <__addsf3+0x354>
     6c8:	0ff00693          	li	a3,255
     6cc:	e8d40ae3          	beq	s0,a3,560 <__addsf3+0xb4>
     6d0:	01b00693          	li	a3,27
     6d4:	02e6d063          	ble	a4,a3,6f4 <__addsf3+0x248>
     6d8:	00100793          	li	a5,1
     6dc:	fc9ff06f          	j	6a4 <__addsf3+0x1f8>
     6e0:	0ff00693          	li	a3,255
     6e4:	e6d40ee3          	beq	s0,a3,560 <__addsf3+0xb4>
     6e8:	040006b7          	lui	a3,0x4000
     6ec:	00d7e7b3          	or	a5,a5,a3
     6f0:	fe1ff06f          	j	6d0 <__addsf3+0x224>
     6f4:	02000693          	li	a3,32
     6f8:	00e7d5b3          	srl	a1,a5,a4
     6fc:	40e68733          	sub	a4,a3,a4
     700:	00e797b3          	sll	a5,a5,a4
     704:	00f037b3          	snez	a5,a5
     708:	00f5e7b3          	or	a5,a1,a5
     70c:	f99ff06f          	j	6a4 <__addsf3+0x1f8>
     710:	06070e63          	beqz	a4,78c <__addsf3+0x2e0>
     714:	02041e63          	bnez	s0,750 <__addsf3+0x2a4>
     718:	00058913          	mv	s2,a1
     71c:	ea060ae3          	beqz	a2,5d0 <__addsf3+0x124>
     720:	fff00693          	li	a3,-1
     724:	00d71863          	bne	a4,a3,734 <__addsf3+0x288>
     728:	40c787b3          	sub	a5,a5,a2
     72c:	00058913          	mv	s2,a1
     730:	f7dff06f          	j	6ac <__addsf3+0x200>
     734:	0ff00693          	li	a3,255
     738:	fff74713          	not	a4,a4
     73c:	e8d50ae3          	beq	a0,a3,5d0 <__addsf3+0x124>
     740:	01b00693          	li	a3,27
     744:	02e6d463          	ble	a4,a3,76c <__addsf3+0x2c0>
     748:	00100713          	li	a4,1
     74c:	0380006f          	j	784 <__addsf3+0x2d8>
     750:	0ff00693          	li	a3,255
     754:	00058913          	mv	s2,a1
     758:	e6d50ce3          	beq	a0,a3,5d0 <__addsf3+0x124>
     75c:	040006b7          	lui	a3,0x4000
     760:	40e00733          	neg	a4,a4
     764:	00d66633          	or	a2,a2,a3
     768:	fd9ff06f          	j	740 <__addsf3+0x294>
     76c:	02000693          	li	a3,32
     770:	00e65833          	srl	a6,a2,a4
     774:	40e68733          	sub	a4,a3,a4
     778:	00e61733          	sll	a4,a2,a4
     77c:	00e03733          	snez	a4,a4
     780:	00e86733          	or	a4,a6,a4
     784:	40e787b3          	sub	a5,a5,a4
     788:	fa5ff06f          	j	72c <__addsf3+0x280>
     78c:	00140713          	addi	a4,s0,1
     790:	0ff77713          	andi	a4,a4,255
     794:	00100693          	li	a3,1
     798:	04e6ca63          	blt	a3,a4,7ec <__addsf3+0x340>
     79c:	02041c63          	bnez	s0,7d4 <__addsf3+0x328>
     7a0:	00061863          	bnez	a2,7b0 <__addsf3+0x304>
     7a4:	12079e63          	bnez	a5,8e0 <__addsf3+0x434>
     7a8:	00000513          	li	a0,0
     7ac:	0380006f          	j	7e4 <__addsf3+0x338>
     7b0:	12078c63          	beqz	a5,8e8 <__addsf3+0x43c>
     7b4:	40f60733          	sub	a4,a2,a5
     7b8:	00571693          	slli	a3,a4,0x5
     7bc:	40c787b3          	sub	a5,a5,a2
     7c0:	1206c063          	bltz	a3,8e0 <__addsf3+0x434>
     7c4:	00070793          	mv	a5,a4
     7c8:	06071663          	bnez	a4,834 <__addsf3+0x388>
     7cc:	00000793          	li	a5,0
     7d0:	fd9ff06f          	j	7a8 <__addsf3+0x2fc>
     7d4:	ea0610e3          	bnez	a2,674 <__addsf3+0x1c8>
     7d8:	10079c63          	bnez	a5,8f0 <__addsf3+0x444>
     7dc:	020007b7          	lui	a5,0x2000
     7e0:	0ff00513          	li	a0,255
     7e4:	00000913          	li	s2,0
     7e8:	07c0006f          	j	864 <__addsf3+0x3b8>
     7ec:	40f604b3          	sub	s1,a2,a5
     7f0:	00549713          	slli	a4,s1,0x5
     7f4:	04075463          	bgez	a4,83c <__addsf3+0x390>
     7f8:	40c784b3          	sub	s1,a5,a2
     7fc:	00058913          	mv	s2,a1
     800:	00048513          	mv	a0,s1
     804:	54d000ef          	jal	ra,1550 <__clzsi2>
     808:	ffb50513          	addi	a0,a0,-5
     80c:	00a494b3          	sll	s1,s1,a0
     810:	02854a63          	blt	a0,s0,844 <__addsf3+0x398>
     814:	40850533          	sub	a0,a0,s0
     818:	00150513          	addi	a0,a0,1
     81c:	02000413          	li	s0,32
     820:	00a4d7b3          	srl	a5,s1,a0
     824:	40a40533          	sub	a0,s0,a0
     828:	00a494b3          	sll	s1,s1,a0
     82c:	009034b3          	snez	s1,s1
     830:	0097e7b3          	or	a5,a5,s1
     834:	00000513          	li	a0,0
     838:	d99ff06f          	j	5d0 <__addsf3+0x124>
     83c:	f80488e3          	beqz	s1,7cc <__addsf3+0x320>
     840:	fc1ff06f          	j	800 <__addsf3+0x354>
     844:	fc0007b7          	lui	a5,0xfc000
     848:	fff78793          	addi	a5,a5,-1 # fbffffff <_end+0xfbffe8cf>
     84c:	40a40533          	sub	a0,s0,a0
     850:	00f4f7b3          	and	a5,s1,a5
     854:	d7dff06f          	j	5d0 <__addsf3+0x124>
     858:	00060793          	mv	a5,a2
     85c:	d75ff06f          	j	5d0 <__addsf3+0x124>
     860:	00000793          	li	a5,0
     864:	00579713          	slli	a4,a5,0x5
     868:	00075e63          	bgez	a4,884 <__addsf3+0x3d8>
     86c:	00150513          	addi	a0,a0,1
     870:	0ff00713          	li	a4,255
     874:	08e50263          	beq	a0,a4,8f8 <__addsf3+0x44c>
     878:	fc000737          	lui	a4,0xfc000
     87c:	fff70713          	addi	a4,a4,-1 # fbffffff <_end+0xfbffe8cf>
     880:	00e7f7b3          	and	a5,a5,a4
     884:	0ff00713          	li	a4,255
     888:	0037d793          	srli	a5,a5,0x3
     88c:	00e51863          	bne	a0,a4,89c <__addsf3+0x3f0>
     890:	00078663          	beqz	a5,89c <__addsf3+0x3f0>
     894:	004007b7          	lui	a5,0x400
     898:	00000913          	li	s2,0
     89c:	00800737          	lui	a4,0x800
     8a0:	fff70713          	addi	a4,a4,-1 # 7fffff <_end+0x7fe8cf>
     8a4:	0ff57513          	andi	a0,a0,255
     8a8:	00e7f7b3          	and	a5,a5,a4
     8ac:	01751713          	slli	a4,a0,0x17
     8b0:	80800537          	lui	a0,0x80800
     8b4:	00c12083          	lw	ra,12(sp)
     8b8:	00812403          	lw	s0,8(sp)
     8bc:	fff50513          	addi	a0,a0,-1 # 807fffff <_end+0x807fe8cf>
     8c0:	00a7f533          	and	a0,a5,a0
     8c4:	01f91913          	slli	s2,s2,0x1f
     8c8:	00e56533          	or	a0,a0,a4
     8cc:	01256533          	or	a0,a0,s2
     8d0:	00412483          	lw	s1,4(sp)
     8d4:	00012903          	lw	s2,0(sp)
     8d8:	01010113          	addi	sp,sp,16
     8dc:	00008067          	ret
     8e0:	00058913          	mv	s2,a1
     8e4:	f51ff06f          	j	834 <__addsf3+0x388>
     8e8:	00060793          	mv	a5,a2
     8ec:	f49ff06f          	j	834 <__addsf3+0x388>
     8f0:	00058913          	mv	s2,a1
     8f4:	c71ff06f          	j	564 <__addsf3+0xb8>
     8f8:	00000793          	li	a5,0
     8fc:	f89ff06f          	j	884 <__addsf3+0x3d8>

00000900 <__divsf3>:
     900:	fd010113          	addi	sp,sp,-48
     904:	02912223          	sw	s1,36(sp)
     908:	01512a23          	sw	s5,20(sp)
     90c:	01755493          	srli	s1,a0,0x17
     910:	00800ab7          	lui	s5,0x800
     914:	03212023          	sw	s2,32(sp)
     918:	01612823          	sw	s6,16(sp)
     91c:	fffa8a93          	addi	s5,s5,-1 # 7fffff <_end+0x7fe8cf>
     920:	02112623          	sw	ra,44(sp)
     924:	02812423          	sw	s0,40(sp)
     928:	01312e23          	sw	s3,28(sp)
     92c:	01412c23          	sw	s4,24(sp)
     930:	01712623          	sw	s7,12(sp)
     934:	01812423          	sw	s8,8(sp)
     938:	0ff4f493          	andi	s1,s1,255
     93c:	00058b13          	mv	s6,a1
     940:	00aafab3          	and	s5,s5,a0
     944:	01f55913          	srli	s2,a0,0x1f
     948:	08048663          	beqz	s1,9d4 <__divsf3+0xd4>
     94c:	0ff00793          	li	a5,255
     950:	0af48263          	beq	s1,a5,9f4 <__divsf3+0xf4>
     954:	003a9a93          	slli	s5,s5,0x3
     958:	040007b7          	lui	a5,0x4000
     95c:	00faeab3          	or	s5,s5,a5
     960:	f8148493          	addi	s1,s1,-127
     964:	00000b93          	li	s7,0
     968:	017b5513          	srli	a0,s6,0x17
     96c:	00800437          	lui	s0,0x800
     970:	fff40413          	addi	s0,s0,-1 # 7fffff <_end+0x7fe8cf>
     974:	0ff57513          	andi	a0,a0,255
     978:	01647433          	and	s0,s0,s6
     97c:	01fb5b13          	srli	s6,s6,0x1f
     980:	08050a63          	beqz	a0,a14 <__divsf3+0x114>
     984:	0ff00793          	li	a5,255
     988:	0af50663          	beq	a0,a5,a34 <__divsf3+0x134>
     98c:	00341413          	slli	s0,s0,0x3
     990:	040007b7          	lui	a5,0x4000
     994:	00f46433          	or	s0,s0,a5
     998:	f8150513          	addi	a0,a0,-127
     99c:	00000793          	li	a5,0
     9a0:	002b9713          	slli	a4,s7,0x2
     9a4:	00f76733          	or	a4,a4,a5
     9a8:	fff70713          	addi	a4,a4,-1
     9ac:	00e00693          	li	a3,14
     9b0:	016949b3          	xor	s3,s2,s6
     9b4:	40a48a33          	sub	s4,s1,a0
     9b8:	08e6ee63          	bltu	a3,a4,a54 <__divsf3+0x154>
     9bc:	000016b7          	lui	a3,0x1
     9c0:	00271713          	slli	a4,a4,0x2
     9c4:	5b868693          	addi	a3,a3,1464 # 15b8 <__clzsi2+0x68>
     9c8:	00d70733          	add	a4,a4,a3
     9cc:	00072703          	lw	a4,0(a4)
     9d0:	00070067          	jr	a4
     9d4:	020a8a63          	beqz	s5,a08 <__divsf3+0x108>
     9d8:	000a8513          	mv	a0,s5
     9dc:	375000ef          	jal	ra,1550 <__clzsi2>
     9e0:	ffb50793          	addi	a5,a0,-5
     9e4:	f8a00493          	li	s1,-118
     9e8:	00fa9ab3          	sll	s5,s5,a5
     9ec:	40a484b3          	sub	s1,s1,a0
     9f0:	f75ff06f          	j	964 <__divsf3+0x64>
     9f4:	0ff00493          	li	s1,255
     9f8:	00200b93          	li	s7,2
     9fc:	f60a86e3          	beqz	s5,968 <__divsf3+0x68>
     a00:	00300b93          	li	s7,3
     a04:	f65ff06f          	j	968 <__divsf3+0x68>
     a08:	00000493          	li	s1,0
     a0c:	00100b93          	li	s7,1
     a10:	f59ff06f          	j	968 <__divsf3+0x68>
     a14:	02040a63          	beqz	s0,a48 <__divsf3+0x148>
     a18:	00040513          	mv	a0,s0
     a1c:	335000ef          	jal	ra,1550 <__clzsi2>
     a20:	ffb50793          	addi	a5,a0,-5
     a24:	00f41433          	sll	s0,s0,a5
     a28:	f8a00793          	li	a5,-118
     a2c:	40a78533          	sub	a0,a5,a0
     a30:	f6dff06f          	j	99c <__divsf3+0x9c>
     a34:	0ff00513          	li	a0,255
     a38:	00200793          	li	a5,2
     a3c:	f60402e3          	beqz	s0,9a0 <__divsf3+0xa0>
     a40:	00300793          	li	a5,3
     a44:	f5dff06f          	j	9a0 <__divsf3+0xa0>
     a48:	00000513          	li	a0,0
     a4c:	00100793          	li	a5,1
     a50:	f51ff06f          	j	9a0 <__divsf3+0xa0>
     a54:	00541b13          	slli	s6,s0,0x5
     a58:	128af663          	bleu	s0,s5,b84 <__divsf3+0x284>
     a5c:	fffa0a13          	addi	s4,s4,-1
     a60:	00000913          	li	s2,0
     a64:	010b5b93          	srli	s7,s6,0x10
     a68:	00010437          	lui	s0,0x10
     a6c:	000b8593          	mv	a1,s7
     a70:	fff40413          	addi	s0,s0,-1 # ffff <_end+0xe8cf>
     a74:	000a8513          	mv	a0,s5
     a78:	22d000ef          	jal	ra,14a4 <__udivsi3>
     a7c:	008b7433          	and	s0,s6,s0
     a80:	00050593          	mv	a1,a0
     a84:	00050c13          	mv	s8,a0
     a88:	00040513          	mv	a0,s0
     a8c:	1ed000ef          	jal	ra,1478 <__mulsi3>
     a90:	00050493          	mv	s1,a0
     a94:	000b8593          	mv	a1,s7
     a98:	000a8513          	mv	a0,s5
     a9c:	251000ef          	jal	ra,14ec <__umodsi3>
     aa0:	01095913          	srli	s2,s2,0x10
     aa4:	01051513          	slli	a0,a0,0x10
     aa8:	00a96533          	or	a0,s2,a0
     aac:	000c0913          	mv	s2,s8
     ab0:	00957e63          	bleu	s1,a0,acc <__divsf3+0x1cc>
     ab4:	01650533          	add	a0,a0,s6
     ab8:	fffc0913          	addi	s2,s8,-1
     abc:	01656863          	bltu	a0,s6,acc <__divsf3+0x1cc>
     ac0:	00957663          	bleu	s1,a0,acc <__divsf3+0x1cc>
     ac4:	ffec0913          	addi	s2,s8,-2
     ac8:	01650533          	add	a0,a0,s6
     acc:	409504b3          	sub	s1,a0,s1
     ad0:	000b8593          	mv	a1,s7
     ad4:	00048513          	mv	a0,s1
     ad8:	1cd000ef          	jal	ra,14a4 <__udivsi3>
     adc:	00050593          	mv	a1,a0
     ae0:	00050c13          	mv	s8,a0
     ae4:	00040513          	mv	a0,s0
     ae8:	191000ef          	jal	ra,1478 <__mulsi3>
     aec:	00050a93          	mv	s5,a0
     af0:	000b8593          	mv	a1,s7
     af4:	00048513          	mv	a0,s1
     af8:	1f5000ef          	jal	ra,14ec <__umodsi3>
     afc:	01051513          	slli	a0,a0,0x10
     b00:	000c0413          	mv	s0,s8
     b04:	01557e63          	bleu	s5,a0,b20 <__divsf3+0x220>
     b08:	01650533          	add	a0,a0,s6
     b0c:	fffc0413          	addi	s0,s8,-1
     b10:	01656863          	bltu	a0,s6,b20 <__divsf3+0x220>
     b14:	01557663          	bleu	s5,a0,b20 <__divsf3+0x220>
     b18:	ffec0413          	addi	s0,s8,-2
     b1c:	01650533          	add	a0,a0,s6
     b20:	01091913          	slli	s2,s2,0x10
     b24:	41550533          	sub	a0,a0,s5
     b28:	00896933          	or	s2,s2,s0
     b2c:	00a03533          	snez	a0,a0
     b30:	00a96433          	or	s0,s2,a0
     b34:	07fa0713          	addi	a4,s4,127
     b38:	0ae05063          	blez	a4,bd8 <__divsf3+0x2d8>
     b3c:	00747793          	andi	a5,s0,7
     b40:	00078a63          	beqz	a5,b54 <__divsf3+0x254>
     b44:	00f47793          	andi	a5,s0,15
     b48:	00400693          	li	a3,4
     b4c:	00d78463          	beq	a5,a3,b54 <__divsf3+0x254>
     b50:	00440413          	addi	s0,s0,4
     b54:	00441793          	slli	a5,s0,0x4
     b58:	0007da63          	bgez	a5,b6c <__divsf3+0x26c>
     b5c:	f80007b7          	lui	a5,0xf8000
     b60:	fff78793          	addi	a5,a5,-1 # f7ffffff <_end+0xf7ffe8cf>
     b64:	00f47433          	and	s0,s0,a5
     b68:	080a0713          	addi	a4,s4,128
     b6c:	0fe00793          	li	a5,254
     b70:	00345413          	srli	s0,s0,0x3
     b74:	0ce7d263          	ble	a4,a5,c38 <__divsf3+0x338>
     b78:	00000413          	li	s0,0
     b7c:	0ff00713          	li	a4,255
     b80:	0b80006f          	j	c38 <__divsf3+0x338>
     b84:	01fa9913          	slli	s2,s5,0x1f
     b88:	001ada93          	srli	s5,s5,0x1
     b8c:	ed9ff06f          	j	a64 <__divsf3+0x164>
     b90:	00090993          	mv	s3,s2
     b94:	000a8413          	mv	s0,s5
     b98:	000b8793          	mv	a5,s7
     b9c:	00200713          	li	a4,2
     ba0:	fce78ce3          	beq	a5,a4,b78 <__divsf3+0x278>
     ba4:	00300713          	li	a4,3
     ba8:	08e78263          	beq	a5,a4,c2c <__divsf3+0x32c>
     bac:	00100713          	li	a4,1
     bb0:	f8e792e3          	bne	a5,a4,b34 <__divsf3+0x234>
     bb4:	00000413          	li	s0,0
     bb8:	00000713          	li	a4,0
     bbc:	07c0006f          	j	c38 <__divsf3+0x338>
     bc0:	000b0993          	mv	s3,s6
     bc4:	fd9ff06f          	j	b9c <__divsf3+0x29c>
     bc8:	00400437          	lui	s0,0x400
     bcc:	00000993          	li	s3,0
     bd0:	00300793          	li	a5,3
     bd4:	fc9ff06f          	j	b9c <__divsf3+0x29c>
     bd8:	00100793          	li	a5,1
     bdc:	40e787b3          	sub	a5,a5,a4
     be0:	01b00713          	li	a4,27
     be4:	fcf748e3          	blt	a4,a5,bb4 <__divsf3+0x2b4>
     be8:	09ea0513          	addi	a0,s4,158
     bec:	00f457b3          	srl	a5,s0,a5
     bf0:	00a41433          	sll	s0,s0,a0
     bf4:	00803433          	snez	s0,s0
     bf8:	0087e433          	or	s0,a5,s0
     bfc:	00747793          	andi	a5,s0,7
     c00:	00078a63          	beqz	a5,c14 <__divsf3+0x314>
     c04:	00f47793          	andi	a5,s0,15
     c08:	00400713          	li	a4,4
     c0c:	00e78463          	beq	a5,a4,c14 <__divsf3+0x314>
     c10:	00440413          	addi	s0,s0,4 # 400004 <_end+0x3fe8d4>
     c14:	00541793          	slli	a5,s0,0x5
     c18:	00345413          	srli	s0,s0,0x3
     c1c:	f807dee3          	bgez	a5,bb8 <__divsf3+0x2b8>
     c20:	00000413          	li	s0,0
     c24:	00100713          	li	a4,1
     c28:	0100006f          	j	c38 <__divsf3+0x338>
     c2c:	00400437          	lui	s0,0x400
     c30:	0ff00713          	li	a4,255
     c34:	00000993          	li	s3,0
     c38:	00800537          	lui	a0,0x800
     c3c:	fff50513          	addi	a0,a0,-1 # 7fffff <_end+0x7fe8cf>
     c40:	00a47433          	and	s0,s0,a0
     c44:	80800537          	lui	a0,0x80800
     c48:	fff50513          	addi	a0,a0,-1 # 807fffff <_end+0x807fe8cf>
     c4c:	0ff77713          	andi	a4,a4,255
     c50:	00a47433          	and	s0,s0,a0
     c54:	01771713          	slli	a4,a4,0x17
     c58:	01f99513          	slli	a0,s3,0x1f
     c5c:	00e46433          	or	s0,s0,a4
     c60:	00a46533          	or	a0,s0,a0
     c64:	02c12083          	lw	ra,44(sp)
     c68:	02812403          	lw	s0,40(sp)
     c6c:	02412483          	lw	s1,36(sp)
     c70:	02012903          	lw	s2,32(sp)
     c74:	01c12983          	lw	s3,28(sp)
     c78:	01812a03          	lw	s4,24(sp)
     c7c:	01412a83          	lw	s5,20(sp)
     c80:	01012b03          	lw	s6,16(sp)
     c84:	00c12b83          	lw	s7,12(sp)
     c88:	00812c03          	lw	s8,8(sp)
     c8c:	03010113          	addi	sp,sp,48
     c90:	00008067          	ret

00000c94 <__mulsf3>:
     c94:	fd010113          	addi	sp,sp,-48
     c98:	02912223          	sw	s1,36(sp)
     c9c:	03212023          	sw	s2,32(sp)
     ca0:	008004b7          	lui	s1,0x800
     ca4:	01755913          	srli	s2,a0,0x17
     ca8:	01312e23          	sw	s3,28(sp)
     cac:	01712623          	sw	s7,12(sp)
     cb0:	fff48493          	addi	s1,s1,-1 # 7fffff <_end+0x7fe8cf>
     cb4:	02112623          	sw	ra,44(sp)
     cb8:	02812423          	sw	s0,40(sp)
     cbc:	01412c23          	sw	s4,24(sp)
     cc0:	01512a23          	sw	s5,20(sp)
     cc4:	01612823          	sw	s6,16(sp)
     cc8:	01812423          	sw	s8,8(sp)
     ccc:	01912223          	sw	s9,4(sp)
     cd0:	0ff97913          	andi	s2,s2,255
     cd4:	00058b93          	mv	s7,a1
     cd8:	00a4f4b3          	and	s1,s1,a0
     cdc:	01f55993          	srli	s3,a0,0x1f
     ce0:	08090863          	beqz	s2,d70 <__mulsf3+0xdc>
     ce4:	0ff00793          	li	a5,255
     ce8:	0af90463          	beq	s2,a5,d90 <__mulsf3+0xfc>
     cec:	00349493          	slli	s1,s1,0x3
     cf0:	040007b7          	lui	a5,0x4000
     cf4:	00f4e4b3          	or	s1,s1,a5
     cf8:	f8190913          	addi	s2,s2,-127
     cfc:	00000b13          	li	s6,0
     d00:	017bd513          	srli	a0,s7,0x17
     d04:	00800437          	lui	s0,0x800
     d08:	fff40413          	addi	s0,s0,-1 # 7fffff <_end+0x7fe8cf>
     d0c:	0ff57513          	andi	a0,a0,255
     d10:	01747433          	and	s0,s0,s7
     d14:	01fbdb93          	srli	s7,s7,0x1f
     d18:	08050c63          	beqz	a0,db0 <__mulsf3+0x11c>
     d1c:	0ff00793          	li	a5,255
     d20:	0af50863          	beq	a0,a5,dd0 <__mulsf3+0x13c>
     d24:	00341413          	slli	s0,s0,0x3
     d28:	040007b7          	lui	a5,0x4000
     d2c:	00f46433          	or	s0,s0,a5
     d30:	f8150513          	addi	a0,a0,-127
     d34:	00000693          	li	a3,0
     d38:	002b1793          	slli	a5,s6,0x2
     d3c:	00d7e7b3          	or	a5,a5,a3
     d40:	00a90933          	add	s2,s2,a0
     d44:	fff78793          	addi	a5,a5,-1 # 3ffffff <_end+0x3ffe8cf>
     d48:	00e00713          	li	a4,14
     d4c:	0179ca33          	xor	s4,s3,s7
     d50:	00190a93          	addi	s5,s2,1
     d54:	08f76e63          	bltu	a4,a5,df0 <__mulsf3+0x15c>
     d58:	00001737          	lui	a4,0x1
     d5c:	00279793          	slli	a5,a5,0x2
     d60:	5f470713          	addi	a4,a4,1524 # 15f4 <__clzsi2+0xa4>
     d64:	00e787b3          	add	a5,a5,a4
     d68:	0007a783          	lw	a5,0(a5)
     d6c:	00078067          	jr	a5
     d70:	02048a63          	beqz	s1,da4 <__mulsf3+0x110>
     d74:	00048513          	mv	a0,s1
     d78:	7d8000ef          	jal	ra,1550 <__clzsi2>
     d7c:	ffb50793          	addi	a5,a0,-5
     d80:	f8a00913          	li	s2,-118
     d84:	00f494b3          	sll	s1,s1,a5
     d88:	40a90933          	sub	s2,s2,a0
     d8c:	f71ff06f          	j	cfc <__mulsf3+0x68>
     d90:	0ff00913          	li	s2,255
     d94:	00200b13          	li	s6,2
     d98:	f60484e3          	beqz	s1,d00 <__mulsf3+0x6c>
     d9c:	00300b13          	li	s6,3
     da0:	f61ff06f          	j	d00 <__mulsf3+0x6c>
     da4:	00000913          	li	s2,0
     da8:	00100b13          	li	s6,1
     dac:	f55ff06f          	j	d00 <__mulsf3+0x6c>
     db0:	02040a63          	beqz	s0,de4 <__mulsf3+0x150>
     db4:	00040513          	mv	a0,s0
     db8:	798000ef          	jal	ra,1550 <__clzsi2>
     dbc:	ffb50793          	addi	a5,a0,-5
     dc0:	00f41433          	sll	s0,s0,a5
     dc4:	f8a00793          	li	a5,-118
     dc8:	40a78533          	sub	a0,a5,a0
     dcc:	f69ff06f          	j	d34 <__mulsf3+0xa0>
     dd0:	0ff00513          	li	a0,255
     dd4:	00200693          	li	a3,2
     dd8:	f60400e3          	beqz	s0,d38 <__mulsf3+0xa4>
     ddc:	00300693          	li	a3,3
     de0:	f59ff06f          	j	d38 <__mulsf3+0xa4>
     de4:	00000513          	li	a0,0
     de8:	00100693          	li	a3,1
     dec:	f4dff06f          	j	d38 <__mulsf3+0xa4>
     df0:	00010c37          	lui	s8,0x10
     df4:	fffc0b13          	addi	s6,s8,-1 # ffff <_end+0xe8cf>
     df8:	0104db93          	srli	s7,s1,0x10
     dfc:	01045c93          	srli	s9,s0,0x10
     e00:	0164f4b3          	and	s1,s1,s6
     e04:	01647433          	and	s0,s0,s6
     e08:	00040593          	mv	a1,s0
     e0c:	00048513          	mv	a0,s1
     e10:	668000ef          	jal	ra,1478 <__mulsi3>
     e14:	00040593          	mv	a1,s0
     e18:	00050993          	mv	s3,a0
     e1c:	000b8513          	mv	a0,s7
     e20:	658000ef          	jal	ra,1478 <__mulsi3>
     e24:	00050413          	mv	s0,a0
     e28:	000c8593          	mv	a1,s9
     e2c:	000b8513          	mv	a0,s7
     e30:	648000ef          	jal	ra,1478 <__mulsi3>
     e34:	00050b93          	mv	s7,a0
     e38:	00048593          	mv	a1,s1
     e3c:	000c8513          	mv	a0,s9
     e40:	638000ef          	jal	ra,1478 <__mulsi3>
     e44:	00850533          	add	a0,a0,s0
     e48:	0109d793          	srli	a5,s3,0x10
     e4c:	00a78533          	add	a0,a5,a0
     e50:	00857463          	bleu	s0,a0,e58 <__mulsf3+0x1c4>
     e54:	018b8bb3          	add	s7,s7,s8
     e58:	016577b3          	and	a5,a0,s6
     e5c:	01079793          	slli	a5,a5,0x10
     e60:	0169f9b3          	and	s3,s3,s6
     e64:	013787b3          	add	a5,a5,s3
     e68:	00679413          	slli	s0,a5,0x6
     e6c:	00803433          	snez	s0,s0
     e70:	01a7d793          	srli	a5,a5,0x1a
     e74:	01055513          	srli	a0,a0,0x10
     e78:	00f467b3          	or	a5,s0,a5
     e7c:	01750433          	add	s0,a0,s7
     e80:	00641413          	slli	s0,s0,0x6
     e84:	00f46433          	or	s0,s0,a5
     e88:	00441793          	slli	a5,s0,0x4
     e8c:	0e07d663          	bgez	a5,f78 <__mulsf3+0x2e4>
     e90:	00145793          	srli	a5,s0,0x1
     e94:	00147413          	andi	s0,s0,1
     e98:	0087e433          	or	s0,a5,s0
     e9c:	07fa8713          	addi	a4,s5,127
     ea0:	0ee05063          	blez	a4,f80 <__mulsf3+0x2ec>
     ea4:	00747793          	andi	a5,s0,7
     ea8:	00078a63          	beqz	a5,ebc <__mulsf3+0x228>
     eac:	00f47793          	andi	a5,s0,15
     eb0:	00400693          	li	a3,4
     eb4:	00d78463          	beq	a5,a3,ebc <__mulsf3+0x228>
     eb8:	00440413          	addi	s0,s0,4
     ebc:	00441793          	slli	a5,s0,0x4
     ec0:	0007da63          	bgez	a5,ed4 <__mulsf3+0x240>
     ec4:	f80007b7          	lui	a5,0xf8000
     ec8:	fff78793          	addi	a5,a5,-1 # f7ffffff <_end+0xf7ffe8cf>
     ecc:	00f47433          	and	s0,s0,a5
     ed0:	080a8713          	addi	a4,s5,128
     ed4:	0fe00793          	li	a5,254
     ed8:	10e7c463          	blt	a5,a4,fe0 <__mulsf3+0x34c>
     edc:	00345793          	srli	a5,s0,0x3
     ee0:	0300006f          	j	f10 <__mulsf3+0x27c>
     ee4:	00098a13          	mv	s4,s3
     ee8:	00048413          	mv	s0,s1
     eec:	000b0693          	mv	a3,s6
     ef0:	00200793          	li	a5,2
     ef4:	0ef68663          	beq	a3,a5,fe0 <__mulsf3+0x34c>
     ef8:	00300793          	li	a5,3
     efc:	0cf68a63          	beq	a3,a5,fd0 <__mulsf3+0x33c>
     f00:	00100613          	li	a2,1
     f04:	00000793          	li	a5,0
     f08:	00000713          	li	a4,0
     f0c:	f8c698e3          	bne	a3,a2,e9c <__mulsf3+0x208>
     f10:	00800437          	lui	s0,0x800
     f14:	fff40413          	addi	s0,s0,-1 # 7fffff <_end+0x7fe8cf>
     f18:	80800537          	lui	a0,0x80800
     f1c:	0087f7b3          	and	a5,a5,s0
     f20:	fff50513          	addi	a0,a0,-1 # 807fffff <_end+0x807fe8cf>
     f24:	02c12083          	lw	ra,44(sp)
     f28:	02812403          	lw	s0,40(sp)
     f2c:	0ff77713          	andi	a4,a4,255
     f30:	00a7f7b3          	and	a5,a5,a0
     f34:	01771713          	slli	a4,a4,0x17
     f38:	01fa1513          	slli	a0,s4,0x1f
     f3c:	00e7e7b3          	or	a5,a5,a4
     f40:	02412483          	lw	s1,36(sp)
     f44:	02012903          	lw	s2,32(sp)
     f48:	01c12983          	lw	s3,28(sp)
     f4c:	01812a03          	lw	s4,24(sp)
     f50:	01412a83          	lw	s5,20(sp)
     f54:	01012b03          	lw	s6,16(sp)
     f58:	00c12b83          	lw	s7,12(sp)
     f5c:	00812c03          	lw	s8,8(sp)
     f60:	00412c83          	lw	s9,4(sp)
     f64:	00a7e533          	or	a0,a5,a0
     f68:	03010113          	addi	sp,sp,48
     f6c:	00008067          	ret
     f70:	000b8a13          	mv	s4,s7
     f74:	f7dff06f          	j	ef0 <__mulsf3+0x25c>
     f78:	00090a93          	mv	s5,s2
     f7c:	f21ff06f          	j	e9c <__mulsf3+0x208>
     f80:	00100793          	li	a5,1
     f84:	40e787b3          	sub	a5,a5,a4
     f88:	01b00713          	li	a4,27
     f8c:	06f74063          	blt	a4,a5,fec <__mulsf3+0x358>
     f90:	09ea8a93          	addi	s5,s5,158
     f94:	00f457b3          	srl	a5,s0,a5
     f98:	01541433          	sll	s0,s0,s5
     f9c:	00803433          	snez	s0,s0
     fa0:	0087e433          	or	s0,a5,s0
     fa4:	00747793          	andi	a5,s0,7
     fa8:	00078a63          	beqz	a5,fbc <__mulsf3+0x328>
     fac:	00f47793          	andi	a5,s0,15
     fb0:	00400713          	li	a4,4
     fb4:	00e78463          	beq	a5,a4,fbc <__mulsf3+0x328>
     fb8:	00440413          	addi	s0,s0,4
     fbc:	00541793          	slli	a5,s0,0x5
     fc0:	0207ca63          	bltz	a5,ff4 <__mulsf3+0x360>
     fc4:	00345793          	srli	a5,s0,0x3
     fc8:	00000713          	li	a4,0
     fcc:	f45ff06f          	j	f10 <__mulsf3+0x27c>
     fd0:	004007b7          	lui	a5,0x400
     fd4:	0ff00713          	li	a4,255
     fd8:	00000a13          	li	s4,0
     fdc:	f35ff06f          	j	f10 <__mulsf3+0x27c>
     fe0:	00000793          	li	a5,0
     fe4:	0ff00713          	li	a4,255
     fe8:	f29ff06f          	j	f10 <__mulsf3+0x27c>
     fec:	00000793          	li	a5,0
     ff0:	fd9ff06f          	j	fc8 <__mulsf3+0x334>
     ff4:	00000793          	li	a5,0
     ff8:	00100713          	li	a4,1
     ffc:	f15ff06f          	j	f10 <__mulsf3+0x27c>

00001000 <__subsf3>:
    1000:	008007b7          	lui	a5,0x800
    1004:	fff78793          	addi	a5,a5,-1 # 7fffff <_end+0x7fe8cf>
    1008:	ff010113          	addi	sp,sp,-16
    100c:	00a7f733          	and	a4,a5,a0
    1010:	01755693          	srli	a3,a0,0x17
    1014:	0175d613          	srli	a2,a1,0x17
    1018:	00b7f7b3          	and	a5,a5,a1
    101c:	00912223          	sw	s1,4(sp)
    1020:	01212023          	sw	s2,0(sp)
    1024:	0ff6f693          	andi	a3,a3,255
    1028:	00371813          	slli	a6,a4,0x3
    102c:	0ff67613          	andi	a2,a2,255
    1030:	00112623          	sw	ra,12(sp)
    1034:	00812423          	sw	s0,8(sp)
    1038:	0ff00713          	li	a4,255
    103c:	01f55493          	srli	s1,a0,0x1f
    1040:	00068913          	mv	s2,a3
    1044:	00060513          	mv	a0,a2
    1048:	01f5d593          	srli	a1,a1,0x1f
    104c:	00379793          	slli	a5,a5,0x3
    1050:	00e61463          	bne	a2,a4,1058 <__subsf3+0x58>
    1054:	00079463          	bnez	a5,105c <__subsf3+0x5c>
    1058:	0015c593          	xori	a1,a1,1
    105c:	40c68733          	sub	a4,a3,a2
    1060:	1a959a63          	bne	a1,s1,1214 <__subsf3+0x214>
    1064:	0ae05663          	blez	a4,1110 <__subsf3+0x110>
    1068:	06061663          	bnez	a2,10d4 <__subsf3+0xd4>
    106c:	00079c63          	bnez	a5,1084 <__subsf3+0x84>
    1070:	0ff00793          	li	a5,255
    1074:	04f68c63          	beq	a3,a5,10cc <__subsf3+0xcc>
    1078:	00080793          	mv	a5,a6
    107c:	00068513          	mv	a0,a3
    1080:	14c0006f          	j	11cc <__subsf3+0x1cc>
    1084:	fff70713          	addi	a4,a4,-1
    1088:	02071e63          	bnez	a4,10c4 <__subsf3+0xc4>
    108c:	010787b3          	add	a5,a5,a6
    1090:	00068513          	mv	a0,a3
    1094:	00579713          	slli	a4,a5,0x5
    1098:	12075a63          	bgez	a4,11cc <__subsf3+0x1cc>
    109c:	00150513          	addi	a0,a0,1
    10a0:	0ff00713          	li	a4,255
    10a4:	32e50e63          	beq	a0,a4,13e0 <__subsf3+0x3e0>
    10a8:	7e000737          	lui	a4,0x7e000
    10ac:	0017f693          	andi	a3,a5,1
    10b0:	fff70713          	addi	a4,a4,-1 # 7dffffff <_end+0x7dffe8cf>
    10b4:	0017d793          	srli	a5,a5,0x1
    10b8:	00e7f7b3          	and	a5,a5,a4
    10bc:	00d7e7b3          	or	a5,a5,a3
    10c0:	10c0006f          	j	11cc <__subsf3+0x1cc>
    10c4:	0ff00613          	li	a2,255
    10c8:	00c69e63          	bne	a3,a2,10e4 <__subsf3+0xe4>
    10cc:	00080793          	mv	a5,a6
    10d0:	0740006f          	j	1144 <__subsf3+0x144>
    10d4:	0ff00613          	li	a2,255
    10d8:	fec68ae3          	beq	a3,a2,10cc <__subsf3+0xcc>
    10dc:	04000637          	lui	a2,0x4000
    10e0:	00c7e7b3          	or	a5,a5,a2
    10e4:	01b00613          	li	a2,27
    10e8:	00e65663          	ble	a4,a2,10f4 <__subsf3+0xf4>
    10ec:	00100793          	li	a5,1
    10f0:	f9dff06f          	j	108c <__subsf3+0x8c>
    10f4:	02000613          	li	a2,32
    10f8:	40e60633          	sub	a2,a2,a4
    10fc:	00e7d5b3          	srl	a1,a5,a4
    1100:	00c797b3          	sll	a5,a5,a2
    1104:	00f037b3          	snez	a5,a5
    1108:	00f5e7b3          	or	a5,a1,a5
    110c:	f81ff06f          	j	108c <__subsf3+0x8c>
    1110:	08070063          	beqz	a4,1190 <__subsf3+0x190>
    1114:	02069c63          	bnez	a3,114c <__subsf3+0x14c>
    1118:	00081863          	bnez	a6,1128 <__subsf3+0x128>
    111c:	0ff00713          	li	a4,255
    1120:	0ae61663          	bne	a2,a4,11cc <__subsf3+0x1cc>
    1124:	0200006f          	j	1144 <__subsf3+0x144>
    1128:	fff00693          	li	a3,-1
    112c:	00d71663          	bne	a4,a3,1138 <__subsf3+0x138>
    1130:	010787b3          	add	a5,a5,a6
    1134:	f61ff06f          	j	1094 <__subsf3+0x94>
    1138:	0ff00693          	li	a3,255
    113c:	fff74713          	not	a4,a4
    1140:	02d61063          	bne	a2,a3,1160 <__subsf3+0x160>
    1144:	0ff00513          	li	a0,255
    1148:	0840006f          	j	11cc <__subsf3+0x1cc>
    114c:	0ff00693          	li	a3,255
    1150:	fed60ae3          	beq	a2,a3,1144 <__subsf3+0x144>
    1154:	040006b7          	lui	a3,0x4000
    1158:	40e00733          	neg	a4,a4
    115c:	00d86833          	or	a6,a6,a3
    1160:	01b00693          	li	a3,27
    1164:	00e6d663          	ble	a4,a3,1170 <__subsf3+0x170>
    1168:	00100713          	li	a4,1
    116c:	01c0006f          	j	1188 <__subsf3+0x188>
    1170:	02000693          	li	a3,32
    1174:	00e85633          	srl	a2,a6,a4
    1178:	40e68733          	sub	a4,a3,a4
    117c:	00e81733          	sll	a4,a6,a4
    1180:	00e03733          	snez	a4,a4
    1184:	00e66733          	or	a4,a2,a4
    1188:	00e787b3          	add	a5,a5,a4
    118c:	f09ff06f          	j	1094 <__subsf3+0x94>
    1190:	00168513          	addi	a0,a3,1 # 4000001 <_end+0x3ffe8d1>
    1194:	0ff57613          	andi	a2,a0,255
    1198:	00100713          	li	a4,1
    119c:	06c74263          	blt	a4,a2,1200 <__subsf3+0x200>
    11a0:	04069463          	bnez	a3,11e8 <__subsf3+0x1e8>
    11a4:	00000513          	li	a0,0
    11a8:	02080263          	beqz	a6,11cc <__subsf3+0x1cc>
    11ac:	22078663          	beqz	a5,13d8 <__subsf3+0x3d8>
    11b0:	010787b3          	add	a5,a5,a6
    11b4:	00579713          	slli	a4,a5,0x5
    11b8:	00075a63          	bgez	a4,11cc <__subsf3+0x1cc>
    11bc:	fc000737          	lui	a4,0xfc000
    11c0:	fff70713          	addi	a4,a4,-1 # fbffffff <_end+0xfbffe8cf>
    11c4:	00e7f7b3          	and	a5,a5,a4
    11c8:	00100513          	li	a0,1
    11cc:	0077f713          	andi	a4,a5,7
    11d0:	20070a63          	beqz	a4,13e4 <__subsf3+0x3e4>
    11d4:	00f7f713          	andi	a4,a5,15
    11d8:	00400693          	li	a3,4
    11dc:	20d70463          	beq	a4,a3,13e4 <__subsf3+0x3e4>
    11e0:	00478793          	addi	a5,a5,4
    11e4:	2000006f          	j	13e4 <__subsf3+0x3e4>
    11e8:	f4080ee3          	beqz	a6,1144 <__subsf3+0x144>
    11ec:	ee0780e3          	beqz	a5,10cc <__subsf3+0xcc>
    11f0:	020007b7          	lui	a5,0x2000
    11f4:	0ff00513          	li	a0,255
    11f8:	00000493          	li	s1,0
    11fc:	1e80006f          	j	13e4 <__subsf3+0x3e4>
    1200:	0ff00713          	li	a4,255
    1204:	1ce50e63          	beq	a0,a4,13e0 <__subsf3+0x3e0>
    1208:	00f80733          	add	a4,a6,a5
    120c:	00175793          	srli	a5,a4,0x1
    1210:	fbdff06f          	j	11cc <__subsf3+0x1cc>
    1214:	08e05063          	blez	a4,1294 <__subsf3+0x294>
    1218:	04061663          	bnez	a2,1264 <__subsf3+0x264>
    121c:	e4078ae3          	beqz	a5,1070 <__subsf3+0x70>
    1220:	fff70713          	addi	a4,a4,-1
    1224:	02071463          	bnez	a4,124c <__subsf3+0x24c>
    1228:	40f807b3          	sub	a5,a6,a5
    122c:	00068513          	mv	a0,a3
    1230:	00579713          	slli	a4,a5,0x5
    1234:	f8075ce3          	bgez	a4,11cc <__subsf3+0x1cc>
    1238:	04000437          	lui	s0,0x4000
    123c:	fff40413          	addi	s0,s0,-1 # 3ffffff <_end+0x3ffe8cf>
    1240:	0087f433          	and	s0,a5,s0
    1244:	00050913          	mv	s2,a0
    1248:	1380006f          	j	1380 <__subsf3+0x380>
    124c:	0ff00613          	li	a2,255
    1250:	e6c68ee3          	beq	a3,a2,10cc <__subsf3+0xcc>
    1254:	01b00613          	li	a2,27
    1258:	02e65063          	ble	a4,a2,1278 <__subsf3+0x278>
    125c:	00100793          	li	a5,1
    1260:	fc9ff06f          	j	1228 <__subsf3+0x228>
    1264:	0ff00613          	li	a2,255
    1268:	e6c682e3          	beq	a3,a2,10cc <__subsf3+0xcc>
    126c:	04000637          	lui	a2,0x4000
    1270:	00c7e7b3          	or	a5,a5,a2
    1274:	fe1ff06f          	j	1254 <__subsf3+0x254>
    1278:	02000613          	li	a2,32
    127c:	00e7d5b3          	srl	a1,a5,a4
    1280:	40e60733          	sub	a4,a2,a4
    1284:	00e797b3          	sll	a5,a5,a4
    1288:	00f037b3          	snez	a5,a5
    128c:	00f5e7b3          	or	a5,a1,a5
    1290:	f99ff06f          	j	1228 <__subsf3+0x228>
    1294:	08070263          	beqz	a4,1318 <__subsf3+0x318>
    1298:	02069e63          	bnez	a3,12d4 <__subsf3+0x2d4>
    129c:	00081863          	bnez	a6,12ac <__subsf3+0x2ac>
    12a0:	0ff00713          	li	a4,255
    12a4:	00058493          	mv	s1,a1
    12a8:	e79ff06f          	j	1120 <__subsf3+0x120>
    12ac:	fff00693          	li	a3,-1
    12b0:	00d71863          	bne	a4,a3,12c0 <__subsf3+0x2c0>
    12b4:	410787b3          	sub	a5,a5,a6
    12b8:	00058493          	mv	s1,a1
    12bc:	f75ff06f          	j	1230 <__subsf3+0x230>
    12c0:	0ff00693          	li	a3,255
    12c4:	fff74713          	not	a4,a4
    12c8:	02d61063          	bne	a2,a3,12e8 <__subsf3+0x2e8>
    12cc:	00058493          	mv	s1,a1
    12d0:	e75ff06f          	j	1144 <__subsf3+0x144>
    12d4:	0ff00693          	li	a3,255
    12d8:	fed60ae3          	beq	a2,a3,12cc <__subsf3+0x2cc>
    12dc:	040006b7          	lui	a3,0x4000
    12e0:	40e00733          	neg	a4,a4
    12e4:	00d86833          	or	a6,a6,a3
    12e8:	01b00693          	li	a3,27
    12ec:	00e6d663          	ble	a4,a3,12f8 <__subsf3+0x2f8>
    12f0:	00100713          	li	a4,1
    12f4:	01c0006f          	j	1310 <__subsf3+0x310>
    12f8:	02000693          	li	a3,32
    12fc:	00e85633          	srl	a2,a6,a4
    1300:	40e68733          	sub	a4,a3,a4
    1304:	00e81733          	sll	a4,a6,a4
    1308:	00e03733          	snez	a4,a4
    130c:	00e66733          	or	a4,a2,a4
    1310:	40e787b3          	sub	a5,a5,a4
    1314:	fa5ff06f          	j	12b8 <__subsf3+0x2b8>
    1318:	00168713          	addi	a4,a3,1 # 4000001 <_end+0x3ffe8d1>
    131c:	0ff77713          	andi	a4,a4,255
    1320:	00100613          	li	a2,1
    1324:	04e64463          	blt	a2,a4,136c <__subsf3+0x36c>
    1328:	02069c63          	bnez	a3,1360 <__subsf3+0x360>
    132c:	00081863          	bnez	a6,133c <__subsf3+0x33c>
    1330:	12079863          	bnez	a5,1460 <__subsf3+0x460>
    1334:	00000513          	li	a0,0
    1338:	ec1ff06f          	j	11f8 <__subsf3+0x1f8>
    133c:	12078663          	beqz	a5,1468 <__subsf3+0x468>
    1340:	40f80733          	sub	a4,a6,a5
    1344:	00571693          	slli	a3,a4,0x5
    1348:	410787b3          	sub	a5,a5,a6
    134c:	1006ca63          	bltz	a3,1460 <__subsf3+0x460>
    1350:	00070793          	mv	a5,a4
    1354:	06071063          	bnez	a4,13b4 <__subsf3+0x3b4>
    1358:	00000793          	li	a5,0
    135c:	fd9ff06f          	j	1334 <__subsf3+0x334>
    1360:	e80816e3          	bnez	a6,11ec <__subsf3+0x1ec>
    1364:	f60794e3          	bnez	a5,12cc <__subsf3+0x2cc>
    1368:	e89ff06f          	j	11f0 <__subsf3+0x1f0>
    136c:	40f80433          	sub	s0,a6,a5
    1370:	00541713          	slli	a4,s0,0x5
    1374:	04075463          	bgez	a4,13bc <__subsf3+0x3bc>
    1378:	41078433          	sub	s0,a5,a6
    137c:	00058493          	mv	s1,a1
    1380:	00040513          	mv	a0,s0
    1384:	1cc000ef          	jal	ra,1550 <__clzsi2>
    1388:	ffb50513          	addi	a0,a0,-5
    138c:	00a41433          	sll	s0,s0,a0
    1390:	03254a63          	blt	a0,s2,13c4 <__subsf3+0x3c4>
    1394:	41250533          	sub	a0,a0,s2
    1398:	00150513          	addi	a0,a0,1
    139c:	02000713          	li	a4,32
    13a0:	00a457b3          	srl	a5,s0,a0
    13a4:	40a70533          	sub	a0,a4,a0
    13a8:	00a41433          	sll	s0,s0,a0
    13ac:	00803433          	snez	s0,s0
    13b0:	0087e7b3          	or	a5,a5,s0
    13b4:	00000513          	li	a0,0
    13b8:	e15ff06f          	j	11cc <__subsf3+0x1cc>
    13bc:	f8040ee3          	beqz	s0,1358 <__subsf3+0x358>
    13c0:	fc1ff06f          	j	1380 <__subsf3+0x380>
    13c4:	fc0007b7          	lui	a5,0xfc000
    13c8:	fff78793          	addi	a5,a5,-1 # fbffffff <_end+0xfbffe8cf>
    13cc:	40a90533          	sub	a0,s2,a0
    13d0:	00f477b3          	and	a5,s0,a5
    13d4:	df9ff06f          	j	11cc <__subsf3+0x1cc>
    13d8:	00080793          	mv	a5,a6
    13dc:	df1ff06f          	j	11cc <__subsf3+0x1cc>
    13e0:	00000793          	li	a5,0
    13e4:	00579713          	slli	a4,a5,0x5
    13e8:	00075e63          	bgez	a4,1404 <__subsf3+0x404>
    13ec:	00150513          	addi	a0,a0,1
    13f0:	0ff00713          	li	a4,255
    13f4:	06e50e63          	beq	a0,a4,1470 <__subsf3+0x470>
    13f8:	fc000737          	lui	a4,0xfc000
    13fc:	fff70713          	addi	a4,a4,-1 # fbffffff <_end+0xfbffe8cf>
    1400:	00e7f7b3          	and	a5,a5,a4
    1404:	0ff00713          	li	a4,255
    1408:	0037d793          	srli	a5,a5,0x3
    140c:	00e51863          	bne	a0,a4,141c <__subsf3+0x41c>
    1410:	00078663          	beqz	a5,141c <__subsf3+0x41c>
    1414:	004007b7          	lui	a5,0x400
    1418:	00000493          	li	s1,0
    141c:	00800737          	lui	a4,0x800
    1420:	fff70713          	addi	a4,a4,-1 # 7fffff <_end+0x7fe8cf>
    1424:	0ff57513          	andi	a0,a0,255
    1428:	00e7f7b3          	and	a5,a5,a4
    142c:	01751713          	slli	a4,a0,0x17
    1430:	80800537          	lui	a0,0x80800
    1434:	00c12083          	lw	ra,12(sp)
    1438:	00812403          	lw	s0,8(sp)
    143c:	fff50513          	addi	a0,a0,-1 # 807fffff <_end+0x807fe8cf>
    1440:	00a7f533          	and	a0,a5,a0
    1444:	01f49493          	slli	s1,s1,0x1f
    1448:	00e56533          	or	a0,a0,a4
    144c:	00956533          	or	a0,a0,s1
    1450:	00012903          	lw	s2,0(sp)
    1454:	00412483          	lw	s1,4(sp)
    1458:	01010113          	addi	sp,sp,16
    145c:	00008067          	ret
    1460:	00058493          	mv	s1,a1
    1464:	f51ff06f          	j	13b4 <__subsf3+0x3b4>
    1468:	00080793          	mv	a5,a6
    146c:	f49ff06f          	j	13b4 <__subsf3+0x3b4>
    1470:	00000793          	li	a5,0
    1474:	f91ff06f          	j	1404 <__subsf3+0x404>

00001478 <__mulsi3>:
    1478:	00050613          	mv	a2,a0
    147c:	00000513          	li	a0,0
    1480:	0015f693          	andi	a3,a1,1
    1484:	00068463          	beqz	a3,148c <__mulsi3+0x14>
    1488:	00c50533          	add	a0,a0,a2
    148c:	0015d593          	srli	a1,a1,0x1
    1490:	00161613          	slli	a2,a2,0x1
    1494:	fe0596e3          	bnez	a1,1480 <__mulsi3+0x8>
    1498:	00008067          	ret

0000149c <__divsi3>:
    149c:	06054063          	bltz	a0,14fc <__umodsi3+0x10>
    14a0:	0605c663          	bltz	a1,150c <__umodsi3+0x20>

000014a4 <__udivsi3>:
    14a4:	00058613          	mv	a2,a1
    14a8:	00050593          	mv	a1,a0
    14ac:	fff00513          	li	a0,-1
    14b0:	02060c63          	beqz	a2,14e8 <__udivsi3+0x44>
    14b4:	00100693          	li	a3,1
    14b8:	00b67a63          	bleu	a1,a2,14cc <__udivsi3+0x28>
    14bc:	00c05863          	blez	a2,14cc <__udivsi3+0x28>
    14c0:	00161613          	slli	a2,a2,0x1
    14c4:	00169693          	slli	a3,a3,0x1
    14c8:	feb66ae3          	bltu	a2,a1,14bc <__udivsi3+0x18>
    14cc:	00000513          	li	a0,0
    14d0:	00c5e663          	bltu	a1,a2,14dc <__udivsi3+0x38>
    14d4:	40c585b3          	sub	a1,a1,a2
    14d8:	00d56533          	or	a0,a0,a3
    14dc:	0016d693          	srli	a3,a3,0x1
    14e0:	00165613          	srli	a2,a2,0x1
    14e4:	fe0696e3          	bnez	a3,14d0 <__udivsi3+0x2c>
    14e8:	00008067          	ret

000014ec <__umodsi3>:
    14ec:	00008293          	mv	t0,ra
    14f0:	fb5ff0ef          	jal	ra,14a4 <__udivsi3>
    14f4:	00058513          	mv	a0,a1
    14f8:	00028067          	jr	t0
    14fc:	40a00533          	neg	a0,a0
    1500:	0005d863          	bgez	a1,1510 <__umodsi3+0x24>
    1504:	40b005b3          	neg	a1,a1
    1508:	f9dff06f          	j	14a4 <__udivsi3>
    150c:	40b005b3          	neg	a1,a1
    1510:	00008293          	mv	t0,ra
    1514:	f91ff0ef          	jal	ra,14a4 <__udivsi3>
    1518:	40a00533          	neg	a0,a0
    151c:	00028067          	jr	t0

00001520 <__modsi3>:
    1520:	00008293          	mv	t0,ra
    1524:	0005ca63          	bltz	a1,1538 <__modsi3+0x18>
    1528:	00054c63          	bltz	a0,1540 <__modsi3+0x20>
    152c:	f79ff0ef          	jal	ra,14a4 <__udivsi3>
    1530:	00058513          	mv	a0,a1
    1534:	00028067          	jr	t0
    1538:	40b005b3          	neg	a1,a1
    153c:	fe0558e3          	bgez	a0,152c <__modsi3+0xc>
    1540:	40a00533          	neg	a0,a0
    1544:	f61ff0ef          	jal	ra,14a4 <__udivsi3>
    1548:	40b00533          	neg	a0,a1
    154c:	00028067          	jr	t0

00001550 <__clzsi2>:
    1550:	000107b7          	lui	a5,0x10
    1554:	02f57a63          	bleu	a5,a0,1588 <__clzsi2+0x38>
    1558:	0ff00793          	li	a5,255
    155c:	00a7b7b3          	sltu	a5,a5,a0
    1560:	00379793          	slli	a5,a5,0x3
    1564:	02000713          	li	a4,32
    1568:	40f70733          	sub	a4,a4,a5
    156c:	00f557b3          	srl	a5,a0,a5
    1570:	00001537          	lui	a0,0x1
    1574:	63050513          	addi	a0,a0,1584 # 1630 <__clz_tab>
    1578:	00a787b3          	add	a5,a5,a0
    157c:	0007c503          	lbu	a0,0(a5) # 10000 <_end+0xe8d0>
    1580:	40a70533          	sub	a0,a4,a0
    1584:	00008067          	ret
    1588:	01000737          	lui	a4,0x1000
    158c:	01000793          	li	a5,16
    1590:	fce56ae3          	bltu	a0,a4,1564 <__clzsi2+0x14>
    1594:	01800793          	li	a5,24
    1598:	fcdff06f          	j	1564 <__clzsi2+0x14>
